
submit:     file format elf64-x86-64
submit
architecture: i386:x86-64, flags 0x00000112:
EXEC_P, HAS_SYMS, D_PAGED
start address 0x0000000000401110

Program Header:
    PHDR off    0x0000000000000040 vaddr 0x0000000000400040 paddr 0x0000000000400040 align 2**3
         filesz 0x00000000000002d8 memsz 0x00000000000002d8 flags r--
  INTERP off    0x0000000000000318 vaddr 0x0000000000400318 paddr 0x0000000000400318 align 2**0
         filesz 0x000000000000001c memsz 0x000000000000001c flags r--
    LOAD off    0x0000000000000000 vaddr 0x0000000000400000 paddr 0x0000000000400000 align 2**12
         filesz 0x0000000000000860 memsz 0x0000000000000860 flags r--
    LOAD off    0x0000000000001000 vaddr 0x0000000000401000 paddr 0x0000000000401000 align 2**12
         filesz 0x00000000000011f1 memsz 0x00000000000011f1 flags r-x
    LOAD off    0x0000000000003000 vaddr 0x0000000000403000 paddr 0x0000000000403000 align 2**12
         filesz 0x00000000000003d8 memsz 0x00000000000003d8 flags r--
    LOAD off    0x0000000000003e00 vaddr 0x0000000000404e00 paddr 0x0000000000404e00 align 2**12
         filesz 0x000000000000028c memsz 0x0000000000000290 flags rw-
 DYNAMIC off    0x0000000000003e10 vaddr 0x0000000000404e10 paddr 0x0000000000404e10 align 2**3
         filesz 0x00000000000001d0 memsz 0x00000000000001d0 flags rw-
    NOTE off    0x0000000000000338 vaddr 0x0000000000400338 paddr 0x0000000000400338 align 2**3
         filesz 0x0000000000000020 memsz 0x0000000000000020 flags r--
    NOTE off    0x0000000000000358 vaddr 0x0000000000400358 paddr 0x0000000000400358 align 2**2
         filesz 0x0000000000000044 memsz 0x0000000000000044 flags r--
0x6474e553 off    0x0000000000000338 vaddr 0x0000000000400338 paddr 0x0000000000400338 align 2**3
         filesz 0x0000000000000020 memsz 0x0000000000000020 flags r--
EH_FRAME off    0x00000000000031a8 vaddr 0x00000000004031a8 paddr 0x00000000004031a8 align 2**2
         filesz 0x0000000000000074 memsz 0x0000000000000074 flags r--
   STACK off    0x0000000000000000 vaddr 0x0000000000000000 paddr 0x0000000000000000 align 2**4
         filesz 0x0000000000000000 memsz 0x0000000000000000 flags rw-
   RELRO off    0x0000000000003e00 vaddr 0x0000000000404e00 paddr 0x0000000000404e00 align 2**0
         filesz 0x0000000000000200 memsz 0x0000000000000200 flags r--

Dynamic Section:
  NEEDED               libc.so.6
  INIT                 0x0000000000401000
  FINI                 0x00000000004021e4
  INIT_ARRAY           0x0000000000404e00
  INIT_ARRAYSZ         0x0000000000000008
  FINI_ARRAY           0x0000000000404e08
  FINI_ARRAYSZ         0x0000000000000008
  GNU_HASH             0x00000000004003a0
  STRTAB               0x0000000000400588
  SYMTAB               0x00000000004003c0
  STRSZ                0x00000000000000cf
  SYMENT               0x0000000000000018
  DEBUG                0x0000000000000000
  PLTGOT               0x0000000000405000
  PLTRELSZ             0x0000000000000150
  PLTREL               0x0000000000000007
  JMPREL               0x0000000000400710
  RELA                 0x00000000004006b0
  RELASZ               0x0000000000000060
  RELAENT              0x0000000000000018
  VERNEED              0x0000000000400680
  VERNEEDNUM           0x0000000000000001
  VERSYM               0x0000000000400658

Version References:
  required from libc.so.6:
    0x069691b4 0x00 03 GLIBC_2.34
    0x09691a75 0x00 02 GLIBC_2.2.5

Sections:
Idx Name          Size      VMA               LMA               File off  Algn
  0 .interp       0000001c  0000000000400318  0000000000400318  00000318  2**0
                  CONTENTS, ALLOC, LOAD, READONLY, DATA
  1 .note.gnu.property 00000020  0000000000400338  0000000000400338  00000338  2**3
                  CONTENTS, ALLOC, LOAD, READONLY, DATA
  2 .note.gnu.build-id 00000024  0000000000400358  0000000000400358  00000358  2**2
                  CONTENTS, ALLOC, LOAD, READONLY, DATA
  3 .note.ABI-tag 00000020  000000000040037c  000000000040037c  0000037c  2**2
                  CONTENTS, ALLOC, LOAD, READONLY, DATA
  4 .gnu.hash     0000001c  00000000004003a0  00000000004003a0  000003a0  2**3
                  CONTENTS, ALLOC, LOAD, READONLY, DATA
  5 .dynsym       000001c8  00000000004003c0  00000000004003c0  000003c0  2**3
                  CONTENTS, ALLOC, LOAD, READONLY, DATA
  6 .dynstr       000000cf  0000000000400588  0000000000400588  00000588  2**0
                  CONTENTS, ALLOC, LOAD, READONLY, DATA
  7 .gnu.version  00000026  0000000000400658  0000000000400658  00000658  2**1
                  CONTENTS, ALLOC, LOAD, READONLY, DATA
  8 .gnu.version_r 00000030  0000000000400680  0000000000400680  00000680  2**3
                  CONTENTS, ALLOC, LOAD, READONLY, DATA
  9 .rela.dyn     00000060  00000000004006b0  00000000004006b0  000006b0  2**3
                  CONTENTS, ALLOC, LOAD, READONLY, DATA
 10 .rela.plt     00000150  0000000000400710  0000000000400710  00000710  2**3
                  CONTENTS, ALLOC, LOAD, READONLY, DATA
 11 .init         0000001b  0000000000401000  0000000000401000  00001000  2**2
                  CONTENTS, ALLOC, LOAD, READONLY, CODE
 12 .plt          000000f0  0000000000401020  0000000000401020  00001020  2**4
                  CONTENTS, ALLOC, LOAD, READONLY, CODE
 13 .text         000010d3  0000000000401110  0000000000401110  00001110  2**4
                  CONTENTS, ALLOC, LOAD, READONLY, CODE
 14 .fini         0000000d  00000000004021e4  00000000004021e4  000021e4  2**2
                  CONTENTS, ALLOC, LOAD, READONLY, CODE
 15 .rodata       000001a8  0000000000403000  0000000000403000  00003000  2**3
                  CONTENTS, ALLOC, LOAD, READONLY, DATA
 16 .eh_frame_hdr 00000074  00000000004031a8  00000000004031a8  000031a8  2**2
                  CONTENTS, ALLOC, LOAD, READONLY, DATA
 17 .eh_frame     000001b8  0000000000403220  0000000000403220  00003220  2**3
                  CONTENTS, ALLOC, LOAD, READONLY, DATA
 18 .init_array   00000008  0000000000404e00  0000000000404e00  00003e00  2**3
                  CONTENTS, ALLOC, LOAD, DATA
 19 .fini_array   00000008  0000000000404e08  0000000000404e08  00003e08  2**3
                  CONTENTS, ALLOC, LOAD, DATA
 20 .dynamic      000001d0  0000000000404e10  0000000000404e10  00003e10  2**3
                  CONTENTS, ALLOC, LOAD, DATA
 21 .got          00000020  0000000000404fe0  0000000000404fe0  00003fe0  2**3
                  CONTENTS, ALLOC, LOAD, DATA
 22 .got.plt      00000088  0000000000405000  0000000000405000  00004000  2**3
                  CONTENTS, ALLOC, LOAD, DATA
 23 .data         00000004  0000000000405088  0000000000405088  00004088  2**0
                  CONTENTS, ALLOC, LOAD, DATA
 24 .bss          00000004  000000000040508c  000000000040508c  0000408c  2**0
                  ALLOC
 25 .comment      0000002e  0000000000000000  0000000000000000  0000408c  2**0
                  CONTENTS, READONLY
 26 .gnu.build.attributes 00001724  0000000000407090  0000000000407090  000040bc  2**2
                  CONTENTS, READONLY, OCTETS
SYMBOL TABLE:
0000000000400318 l    d  .interp	0000000000000000              .interp
0000000000400338 l    d  .note.gnu.property	0000000000000000              .note.gnu.property
0000000000400358 l    d  .note.gnu.build-id	0000000000000000              .note.gnu.build-id
000000000040037c l    d  .note.ABI-tag	0000000000000000              .note.ABI-tag
00000000004003a0 l    d  .gnu.hash	0000000000000000              .gnu.hash
00000000004003c0 l    d  .dynsym	0000000000000000              .dynsym
0000000000400588 l    d  .dynstr	0000000000000000              .dynstr
0000000000400658 l    d  .gnu.version	0000000000000000              .gnu.version
0000000000400680 l    d  .gnu.version_r	0000000000000000              .gnu.version_r
00000000004006b0 l    d  .rela.dyn	0000000000000000              .rela.dyn
0000000000400710 l    d  .rela.plt	0000000000000000              .rela.plt
0000000000401000 l    d  .init	0000000000000000              .init
0000000000401020 l    d  .plt	0000000000000000              .plt
0000000000401110 l    d  .text	0000000000000000              .text
00000000004021e4 l    d  .fini	0000000000000000              .fini
0000000000403000 l    d  .rodata	0000000000000000              .rodata
00000000004031a8 l    d  .eh_frame_hdr	0000000000000000              .eh_frame_hdr
0000000000403220 l    d  .eh_frame	0000000000000000              .eh_frame
0000000000404e00 l    d  .init_array	0000000000000000              .init_array
0000000000404e08 l    d  .fini_array	0000000000000000              .fini_array
0000000000404e10 l    d  .dynamic	0000000000000000              .dynamic
0000000000404fe0 l    d  .got	0000000000000000              .got
0000000000405000 l    d  .got.plt	0000000000000000              .got.plt
0000000000405088 l    d  .data	0000000000000000              .data
000000000040508c l    d  .bss	0000000000000000              .bss
0000000000000000 l    d  .comment	0000000000000000              .comment
0000000000407090 l    d  .gnu.build.attributes	0000000000000000              .gnu.build.attributes
0000000000000000 l    df *ABS*	0000000000000000              /usr/lib/gcc/x86_64-redhat-linux/11/../../../../lib64/crt1.o
0000000000401136 l       .text	0000000000000000              .hidden .annobin_abi_note.c
0000000000401136 l       .text	0000000000000000              .hidden .annobin_abi_note.c_end
0000000000401110 l       .text	0000000000000000              .hidden .annobin_abi_note.c.hot
0000000000401110 l       .text	0000000000000000              .hidden .annobin_abi_note.c_end.hot
0000000000401110 l       .text	0000000000000000              .hidden .annobin_abi_note.c.unlikely
0000000000401110 l       .text	0000000000000000              .hidden .annobin_abi_note.c_end.unlikely
0000000000401110 l       .text	0000000000000000              .hidden .annobin_abi_note.c.startup
0000000000401110 l       .text	0000000000000000              .hidden .annobin_abi_note.c_end.startup
0000000000401110 l       .text	0000000000000000              .hidden .annobin_abi_note.c.exit
0000000000401110 l       .text	0000000000000000              .hidden .annobin_abi_note.c_end.exit
000000000040037c l     O .note.ABI-tag	0000000000000020              __abi_tag
0000000000401136 l       .text	0000000000000000              .hidden .annobin_init.c
0000000000401136 l       .text	0000000000000000              .hidden .annobin_init.c_end
0000000000401110 l       .text	0000000000000000              .hidden .annobin_init.c.hot
0000000000401110 l       .text	0000000000000000              .hidden .annobin_init.c_end.hot
0000000000401110 l       .text	0000000000000000              .hidden .annobin_init.c.unlikely
0000000000401110 l       .text	0000000000000000              .hidden .annobin_init.c_end.unlikely
0000000000401110 l       .text	0000000000000000              .hidden .annobin_init.c.startup
0000000000401110 l       .text	0000000000000000              .hidden .annobin_init.c_end.startup
0000000000401110 l       .text	0000000000000000              .hidden .annobin_init.c.exit
0000000000401110 l       .text	0000000000000000              .hidden .annobin_init.c_end.exit
0000000000401140 l       .text	0000000000000000              .hidden .annobin_static_reloc.c
0000000000401136 l       .text	0000000000000000              .hidden .annobin_static_reloc.c_end
0000000000401110 l       .text	0000000000000000              .hidden .annobin_static_reloc.c.hot
0000000000401110 l       .text	0000000000000000              .hidden .annobin_static_reloc.c_end.hot
0000000000401110 l       .text	0000000000000000              .hidden .annobin_static_reloc.c.unlikely
0000000000401110 l       .text	0000000000000000              .hidden .annobin_static_reloc.c_end.unlikely
0000000000401110 l       .text	0000000000000000              .hidden .annobin_static_reloc.c.startup
0000000000401110 l       .text	0000000000000000              .hidden .annobin_static_reloc.c_end.startup
0000000000401110 l       .text	0000000000000000              .hidden .annobin_static_reloc.c.exit
0000000000401110 l       .text	0000000000000000              .hidden .annobin_static_reloc.c_end.exit
0000000000401140 l       .text	0000000000000000              .hidden .annobin__dl_relocate_static_pie.start
0000000000401145 l       .text	0000000000000000              .hidden .annobin__dl_relocate_static_pie.end
0000000000000000 l    df *ABS*	0000000000000000              crtstuff.c
0000000000401150 l     F .text	0000000000000000              deregister_tm_clones
0000000000401180 l     F .text	0000000000000000              register_tm_clones
00000000004011c0 l     F .text	0000000000000000              __do_global_dtors_aux
000000000040508c l     O .bss	0000000000000001              completed.0
0000000000404e08 l     O .fini_array	0000000000000000              __do_global_dtors_aux_fini_array_entry
00000000004011f0 l     F .text	0000000000000000              frame_dummy
0000000000404e00 l     O .init_array	0000000000000000              __frame_dummy_init_array_entry
0000000000000000 l    df *ABS*	0000000000000000              submit.c
0000000000000000 l    df *ABS*	0000000000000000              crtstuff.c
00000000004033d4 l     O .eh_frame	0000000000000000              __FRAME_END__
0000000000000000 l    df *ABS*	0000000000000000              
0000000000404e10 l     O .dynamic	0000000000000000              _DYNAMIC
00000000004031a8 l       .eh_frame_hdr	0000000000000000              __GNU_EH_FRAME_HDR
0000000000405000 l     O .got.plt	0000000000000000              _GLOBAL_OFFSET_TABLE_
000000000040182a g     F .text	00000000000000c7              obfuscate
00000000004018f1 g     F .text	00000000000000d8              deobfuscate
0000000000000000       F *UND*	0000000000000000              localtime@GLIBC_2.2.5
0000000000000000       F *UND*	0000000000000000              __libc_start_main@GLIBC_2.34
0000000000000000  w      *UND*	0000000000000000              _ITM_deregisterTMCloneTable
0000000000405088  w      .data	0000000000000000              data_start
0000000000401d4e g     F .text	0000000000000495              submit
0000000000000000       F *UND*	0000000000000000              puts@GLIBC_2.2.5
000000000040508c g       .data	0000000000000000              _edata
0000000000401493 g     F .text	0000000000000397              run
00000000004021e4 g     F .fini	0000000000000000              .hidden _fini
0000000000000000       F *UND*	0000000000000000              strlen@GLIBC_2.2.5
0000000000000000       F *UND*	0000000000000000              strchr@GLIBC_2.2.5
0000000000000000       F *UND*	0000000000000000              printf@GLIBC_2.2.5
0000000000000000       F *UND*	0000000000000000              pclose@GLIBC_2.2.5
0000000000000000       F *UND*	0000000000000000              strrchr@GLIBC_2.2.5
0000000000000000       F *UND*	0000000000000000              strncat@GLIBC_2.2.5
0000000000000000       F *UND*	0000000000000000              fgetc@GLIBC_2.2.5
000000000040133a g     F .text	0000000000000159              createBashString
0000000000405088 g       .data	0000000000000000              __data_start
0000000000000000       F *UND*	0000000000000000              strcmp@GLIBC_2.2.5
0000000000000000  w      *UND*	0000000000000000              __gmon_start__
0000000000403008 g     O .rodata	0000000000000000              .hidden __dso_handle
0000000000403000 g     O .rodata	0000000000000004              _IO_stdin_used
0000000000000000       F *UND*	0000000000000000              time@GLIBC_2.2.5
0000000000000000       F *UND*	0000000000000000              fflush@GLIBC_2.2.5
00000000004012a5 g     F .text	0000000000000095              getMaxBashIndex
00000000004011f6 g     F .text	00000000000000af              filetostr
0000000000405090 g       .bss	0000000000000000              _end
0000000000401140 g     F .text	0000000000000005              .hidden _dl_relocate_static_pie
0000000000401110 g     F .text	0000000000000026              _start
000000000040508c g       .bss	0000000000000000              __bss_start
0000000000401b2d g     F .text	0000000000000221              main
00000000004019c9 g     F .text	0000000000000054              strend
0000000000000000       F *UND*	0000000000000000              popen@GLIBC_2.2.5
0000000000401a1d g     F .text	0000000000000110              validFilename
0000000000000000       F *UND*	0000000000000000              sprintf@GLIBC_2.2.5
0000000000405090 g     O .data	0000000000000000              .hidden __TMC_END__
0000000000000000  w      *UND*	0000000000000000              _ITM_registerTMCloneTable
0000000000401000 g     F .init	0000000000000000              .hidden _init


Contents of section .interp:
 400318 2f6c6962 36342f6c 642d6c69 6e75782d  /lib64/ld-linux-
 400328 7838362d 36342e73 6f2e3200           x86-64.so.2.    
Contents of section .note.gnu.property:
 400338 04000000 10000000 05000000 474e5500  ............GNU.
 400348 028000c0 04000000 03000000 00000000  ................
Contents of section .note.gnu.build-id:
 400358 04000000 14000000 03000000 474e5500  ............GNU.
 400368 6c42bb4c 6aca09a6 176bbe67 619714d8  lB.Lj....k.ga...
 400378 a6720e38                             .r.8            
Contents of section .note.ABI-tag:
 40037c 04000000 10000000 01000000 474e5500  ............GNU.
 40038c 00000000 03000000 02000000 00000000  ................
Contents of section .gnu.hash:
 4003a0 01000000 01000000 01000000 00000000  ................
 4003b0 00000000 00000000 00000000           ............    
Contents of section .dynsym:
 4003c0 00000000 00000000 00000000 00000000  ................
 4003d0 00000000 00000000 16000000 12000000  ................
 4003e0 00000000 00000000 00000000 00000000  ................
 4003f0 20000000 12000000 00000000 00000000   ...............
 400400 00000000 00000000 8a000000 20000000  ............ ...
 400410 00000000 00000000 00000000 00000000  ................
 400420 39000000 12000000 00000000 00000000  9...............
 400430 00000000 00000000 4c000000 12000000  ........L.......
 400440 00000000 00000000 00000000 00000000  ................
 400450 0f000000 12000000 00000000 00000000  ................
 400460 00000000 00000000 54000000 12000000  ........T.......
 400470 00000000 00000000 00000000 00000000  ................
 400480 3e000000 12000000 00000000 00000000  >...............
 400490 00000000 00000000 5b000000 12000000  ........[.......
 4004a0 00000000 00000000 00000000 00000000  ................
 4004b0 07000000 12000000 00000000 00000000  ................
 4004c0 00000000 00000000 01000000 12000000  ................
 4004d0 00000000 00000000 00000000 00000000  ................
 4004e0 32000000 12000000 00000000 00000000  2...............
 4004f0 00000000 00000000 a6000000 20000000  ............ ...
 400500 00000000 00000000 00000000 00000000  ................
 400510 1b000000 12000000 00000000 00000000  ................
 400520 00000000 00000000 45000000 12000000  ........E.......
 400530 00000000 00000000 00000000 00000000  ................
 400540 63000000 12000000 00000000 00000000  c...............
 400550 00000000 00000000 53000000 12000000  ........S.......
 400560 00000000 00000000 00000000 00000000  ................
 400570 b5000000 20000000 00000000 00000000  .... ...........
 400580 00000000 00000000                    ........        
Contents of section .dynstr:
 400588 00666765 74630073 74726e63 61740073  .fgetc.strncat.s
 400598 74726368 72006c6f 63616c74 696d6500  trchr.localtime.
 4005a8 5f5f6c69 62635f73 74617274 5f6d6169  __libc_start_mai
 4005b8 6e007374 72636d70 00707574 73007063  n.strcmp.puts.pc
 4005c8 6c6f7365 0066666c 75736800 7374726c  lose.fflush.strl
 4005d8 656e0073 7072696e 74660073 74727263  en.sprintf.strrc
 4005e8 68720070 6f70656e 006c6962 632e736f  hr.popen.libc.so
 4005f8 2e360047 4c494243 5f322e33 3400474c  .6.GLIBC_2.34.GL
 400608 4942435f 322e322e 35005f49 544d5f64  IBC_2.2.5._ITM_d
 400618 65726567 69737465 72544d43 6c6f6e65  eregisterTMClone
 400628 5461626c 65005f5f 676d6f6e 5f737461  Table.__gmon_sta
 400638 72745f5f 005f4954 4d5f7265 67697374  rt__._ITM_regist
 400648 6572544d 436c6f6e 65546162 6c6500    erTMCloneTable. 
Contents of section .gnu.version:
 400658 00000200 03000000 02000200 02000200  ................
 400668 02000200 02000200 02000000 02000200  ................
 400678 02000200 0000                        ......          
Contents of section .gnu.version_r:
 400680 01000200 69000000 10000000 00000000  ....i...........
 400690 b4919606 00000300 73000000 10000000  ........s.......
 4006a0 751a6909 00000200 7e000000 00000000  u.i.....~.......
Contents of section .rela.dyn:
 4006b0 e04f4000 00000000 06000000 02000000  .O@.............
 4006c0 00000000 00000000 e84f4000 00000000  .........O@.....
 4006d0 06000000 03000000 00000000 00000000  ................
 4006e0 f04f4000 00000000 06000000 0d000000  .O@.............
 4006f0 00000000 00000000 f84f4000 00000000  .........O@.....
 400700 06000000 12000000 00000000 00000000  ................
Contents of section .rela.plt:
 400710 18504000 00000000 07000000 01000000  .P@.............
 400720 00000000 00000000 20504000 00000000  ........ P@.....
 400730 07000000 04000000 00000000 00000000  ................
 400740 28504000 00000000 07000000 05000000  (P@.............
 400750 00000000 00000000 30504000 00000000  ........0P@.....
 400760 07000000 06000000 00000000 00000000  ................
 400770 38504000 00000000 07000000 07000000  8P@.............
 400780 00000000 00000000 40504000 00000000  ........@P@.....
 400790 07000000 08000000 00000000 00000000  ................
 4007a0 48504000 00000000 07000000 09000000  HP@.............
 4007b0 00000000 00000000 50504000 00000000  ........PP@.....
 4007c0 07000000 0a000000 00000000 00000000  ................
 4007d0 58504000 00000000 07000000 0b000000  XP@.............
 4007e0 00000000 00000000 60504000 00000000  ........`P@.....
 4007f0 07000000 0c000000 00000000 00000000  ................
 400800 68504000 00000000 07000000 0e000000  hP@.............
 400810 00000000 00000000 70504000 00000000  ........pP@.....
 400820 07000000 0f000000 00000000 00000000  ................
 400830 78504000 00000000 07000000 10000000  xP@.............
 400840 00000000 00000000 80504000 00000000  .........P@.....
 400850 07000000 11000000 00000000 00000000  ................
Contents of section .init:
 401000 f30f1efa 4883ec08 488b05e1 3f000048  ....H...H...?..H
 401010 85c07402 ffd04883 c408c3             ..t...H....     
Contents of section .plt:
 401020 ff35e23f 0000ff25 e43f0000 0f1f4000  .5.?...%.?....@.
 401030 ff25e23f 00006800 000000e9 e0ffffff  .%.?..h.........
 401040 ff25da3f 00006801 000000e9 d0ffffff  .%.?..h.........
 401050 ff25d23f 00006802 000000e9 c0ffffff  .%.?..h.........
 401060 ff25ca3f 00006803 000000e9 b0ffffff  .%.?..h.........
 401070 ff25c23f 00006804 000000e9 a0ffffff  .%.?..h.........
 401080 ff25ba3f 00006805 000000e9 90ffffff  .%.?..h.........
 401090 ff25b23f 00006806 000000e9 80ffffff  .%.?..h.........
 4010a0 ff25aa3f 00006807 000000e9 70ffffff  .%.?..h.....p...
 4010b0 ff25a23f 00006808 000000e9 60ffffff  .%.?..h.....`...
 4010c0 ff259a3f 00006809 000000e9 50ffffff  .%.?..h.....P...
 4010d0 ff25923f 0000680a 000000e9 40ffffff  .%.?..h.....@...
 4010e0 ff258a3f 0000680b 000000e9 30ffffff  .%.?..h.....0...
 4010f0 ff25823f 0000680c 000000e9 20ffffff  .%.?..h..... ...
 401100 ff257a3f 0000680d 000000e9 10ffffff  .%z?..h.........
Contents of section .text:
 401110 f30f1efa 31ed4989 d15e4889 e24883e4  ....1.I..^H..H..
 401120 f0505445 31c031c9 48c7c72d 1b4000ff  .PTE1.1.H..-.@..
 401130 15ab3e00 00f4662e 0f1f8400 00000000  ..>...f.........
 401140 f30f1efa c3662e0f 1f840000 00000090  .....f..........
 401150 488d3d39 3f000048 8d05323f 00004839  H.=9?..H..2?..H9
 401160 f8741548 8b057e3e 00004885 c07409ff  .t.H..~>..H..t..
 401170 e00f1f80 00000000 c30f1f80 00000000  ................
 401180 488d3d09 3f000048 8d35023f 00004829  H.=.?..H.5.?..H)
 401190 fe4889f0 48c1ee3f 48c1f803 4801c648  .H..H..?H...H..H
 4011a0 d1fe7414 488b054d 3e000048 85c07408  ..t.H..M>..H..t.
 4011b0 ffe0660f 1f440000 c30f1f80 00000000  ..f..D..........
 4011c0 f30f1efa 803dc13e 00000075 13554889  .....=.>...u.UH.
 4011d0 e5e87aff ffffc605 af3e0000 015dc390  ..z......>...]..
 4011e0 c366662e 0f1f8400 00000000 0f1f4000  .ff...........@.
 4011f0 f30f1efa eb8a5548 89e54883 ec304889  ......UH..H..0H.
 401200 7de84889 75e08955 dc89c888 45d8c745  }.H.u..U....E..E
 401210 f8000000 00488b45 e84889c7 e88ffeff  .....H.E.H......
 401220 ff8845ff eb268b45 f84863d0 488b45e0  ..E..&.E.Hc.H.E.
 401230 4801c20f b645ff88 02488b45 e84889c7  H....E...H.E.H..
 401240 e86bfeff ff8845ff 8345f801 807dffff  .k....E..E...}..
 401250 74088b45 f83b45dc 7ccc8b45 f84863d0  t..E.;E.|..E.Hc.
 401260 488b45e0 4801d0c6 0000807d d8007432  H.E.H......}..t2
 401270 488b45e0 4889c7e8 d4fdffff 83e80189  H.E.H...........
 401280 45f48b45 f44863d0 488b45e0 4801d0c6  E..E.Hc.H.E.H...
 401290 000a8b45 f44863d0 488b45e0 4801d0c6  ...E.Hc.H.E.H...
 4012a0 000090c9 c3554889 e54883ec 3048897d  .....UH..H..0H.}
 4012b0 d8488b45 d84889c7 e893fdff ff8945f4  .H.E.H........E.
 4012c0 c745fc00 000000c7 45f80000 0000eb5d  .E......E......]
 4012d0 8b45f848 63d0488b 45d84801 d00fb600  .E.Hc.H.E.H.....
 4012e0 8845f38b 45f84898 488d5001 488b45d8  .E..E.H.H.P.H.E.
 4012f0 4801d00f b6008845 f2807df3 24752a0f  H......E..}.$u*.
 401300 be45f283 e8308945 ec837dec 007e1483  .E...0.E..}..~..
 401310 7dec097f 0e8b45ec 3b45fc7e 068b45ec  }.....E.;E.~..E.
 401320 8945fc83 45f802eb 048345f8 018b45f8  .E..E.....E...E.
 401330 3b45f47c 9b8b45fc c9c35548 89e54883  ;E.|..E...UH..H.
 401340 ec404889 7dd88975 d4488955 c848894d  .@H.}..u.H.U.H.M
 401350 c0c745f8 00000000 488b45c8 4889c7e8  ..E.....H.E.H...
 401360 ecfcffff 8945f4c7 45fc0000 0000488b  .....E..E.....H.
 401370 45d8c600 00e9fa00 00008b45 f84863d0  E..........E.Hc.
 401380 488b45c8 4801d00f b6008845 eb8b45f8  H.E.H......E..E.
 401390 4898488d 5001488b 45c84801 d00fb600  H.H.P.H.E.H.....
 4013a0 8845f30f be45f383 e8308945 ec0fb645  .E...E...0.E...E
 4013b0 eb3c2475 2d807df3 2475278b 45d483e8  .<$u-.}.$u'.E...
 4013c0 014863d0 488b45d8 be103040 004889c7  .Hc.H.E...0@.H..
 4013d0 e8cbfcff ff8345fc 018345f8 02e99200  ......E...E.....
 4013e0 00000fb6 45eb3c24 756a837d ec007e64  ....E.<$uj.}..~d
 4013f0 837dec09 7f5e8b45 d42b45fc 4863d08b  .}...^.E.+E.Hc..
 401400 45ec4898 488d0cc5 00000000 488b45c0  E.H.H.......H.E.
 401410 4801c848 8b08488b 45d84889 ce4889c7  H..H..H.E.H..H..
 401420 e87bfcff ff8b45ec 4898488d 14c50000  .{....E.H.H.....
 401430 0000488b 45c04801 d0488b00 4889c7e8  ..H.E.H..H..H...
 401440 0cfcffff 89c28b45 fc01d089 45fc8345  .......E....E..E
 401450 f802eb20 488d4deb 488b45d8 ba010000  ... H.M.H.E.....
 401460 004889ce 4889c7e8 34fcffff 8345fc01  .H..H...4....E..
 401470 8345f801 8b45f83b 45f47d0c 8b45fc3b  .E...E.;E.}..E.;
 401480 45d40f8c f2feffff 8b45fc3b 45d40f9e  E........E.;E...
 401490 c0c9c355 4889e541 57415641 55415453  ...UH..AWAVAUATS
 4014a0 4881eca8 01000048 89bd58fe ffff89b5  H......H..X.....
 4014b0 54feffff 48899548 feffff48 898d38ff  T...H..H...H..8.
 4014c0 ffff4c89 8540ffff ff4c898d 48ffffff  ..L..@...L..H...
 4014d0 84c07429 0f298550 ffffff0f 298d60ff  ..t).).P....).`.
 4014e0 ffff0f29 9570ffff ff0f295d 800f2965  ...).p....)]..)e
 4014f0 900f296d a00f2975 b00f297d c04889e0  ..)m..)u..)}.H..
 401500 4889c3c7 8514ffff fff40100 00c78510  H...............
 401510 ffffff0a 0000008b 8514ffff ff489848  .............H.H
 401520 83e80148 898508ff ffff8b85 14ffffff  ...H............
 401530 48984889 8530feff ff48c785 38feffff  H.H..0...H..8...
 401540 00000000 8b8514ff ffff4898 4989c641  ..........H.I..A
 401550 bf000000 008b8514 ffffff48 98ba1000  ...........H....
 401560 00004883 ea014801 d0b91000 0000ba00  ..H...H.........
 401570 00000048 f7f1486b c0104829 c44889e0  ...H..Hk..H).H..
 401580 4883c000 48898500 ffffff8b 8510ffff  H...H...........
 401590 ff489848 83e80148 8985f8fe ffff8b85  .H.H...H........
 4015a0 10ffffff 48984989 c441bd00 0000008b  ....H.I..A......
 4015b0 8510ffff ff489849 89c241bb 00000000  .....H.I..A.....
 4015c0 8b8510ff ffff4898 ba100000 004883ea  ......H......H..
 4015d0 014801d0 b9100000 00ba0000 000048f7  .H............H.
 4015e0 f1486bc0 104829c4 4889e048 83c00048  .Hk..H).H..H...H
 4015f0 8985f0fe ffff488b 8548feff ff4889c7  ......H..H...H..
 401600 e8a0fcff ff8985ec feffffc7 8568feff  .............h..
 401610 ff180000 00c7856c feffff30 00000048  .......l...0...H
 401620 8d451048 898570fe ffff488d 8520ffff  .E.H..p...H.. ..
 401630 ff488985 78feffff c7851cff ffff0100  .H..x...........
 401640 0000eb5a 8b8568fe ffff83f8 2f772348  ...Z..h...../w#H
 401650 8b8578fe ffff8b95 68feffff 89d24801  ..x.....h.....H.
 401660 d08b9568 feffff83 c2088995 68feffff  ...h........h...
 401670 eb12488b 8570feff ff488d50 08488995  ..H..p...H.P.H..
 401680 70feffff 488b108b 851cffff ff489848  p...H........H.H
 401690 8994c580 feffff83 851cffff ff018b85  ................
 4016a0 1cffffff 3b85ecfe ffff7e98 8b8514ff  ....;.....~.....
 4016b0 ffff8d70 fb488d8d 80feffff 488b9548  ...p.H......H..H
 4016c0 feffff48 8b8500ff ffff4889 c7e868fc  ...H......H...h.
 4016d0 ffff8885 ebfeffff 0fb685eb feffff83  ................
 4016e0 f00184c0 740ab8fd ffffffe9 28010000  ....t.......(...
 4016f0 488b8500 ffffff48 89c7e851 f9ffff48  H......H...Q...H
 401700 89c2488b 8500ffff ff4801d0 c7002032  ..H......H.... 2
 401710 3e2666c7 40043100 488b8500 ffffffbe  >&f.@.1.H.......
 401720 12304000 4889c7e8 c4f9ffff 488985e0  .0@.H.......H...
 401730 feffff48 83bde0fe ffff0075 0ab8ffff  ...H.......u....
 401740 ffffe9d1 00000048 83bd58fe ffff0075  .......H..X....u
 401750 388b9510 ffffff48 8bb5f0fe ffff488b  8......H......H.
 401760 85e0feff ffb90100 00004889 c7e884fa  ..........H.....
 401770 ffff488b 85f0feff ff4889c7 e8cff8ff  ..H......H......
 401780 ff898518 ffffffeb 368b9554 feffff48  ........6..T...H
 401790 8bb558fe ffff488b 85e0feff ffb90100  ..X...H.........
 4017a0 00004889 c7e84cfa ffff488b 8558feff  ..H...L...H..X..
 4017b0 ff4889c7 e897f8ff ff898518 ffffff48  .H.............H
 4017c0 8b85e0fe ffff4889 c7e812f9 ffff488b  ......H.......H.
 4017d0 85e0feff ff4889c7 e8a3f8ff ff8985dc  .....H..........
 4017e0 feffff83 bddcfeff ff007517 83bd18ff  ..........u.....
 4017f0 ffff0075 07b80100 0000eb1c b8020000  ...u............
 401800 00eb1583 bd18ffff ff007507 b8ffffff  ..........u.....
 401810 ffeb05b8 feffffff 4889dc48 8d65d85b  ........H..H.e.[
 401820 415c415d 415e415f 5dc35548 89e54883  A\A]A^A_].UH..H.
 401830 ec304889 7dd88975 d48b45d4 48984889  .0H.}..u..E.H.H.
 401840 45f0488b 45d84889 c7e802f8 ffff83c0  E.H.E.H.........
 401850 018945ec c745fc00 000000e9 81000000  ..E..E..........
 401860 488b55f0 4889d048 01c04801 d048c1e0  H.U.H..H..H..H..
 401870 044829d0 488d480b 48ba0180 00800080  .H).H.H.H.......
 401880 00804889 c848f7ea 488d040a 48c1f80f  ..H..H..H...H...
 401890 4889ca48 c1fa3f48 29d04889 45f0488b  H..H..?H).H.E.H.
 4018a0 55f04889 d048c1e0 104829d0 4829c148  U.H..H...H).H).H
 4018b0 89ca4889 55f08b45 fc4863d0 488b45d8  ..H.U..E.Hc.H.E.
 4018c0 4801d00f b610488b 45f089c6 8b45fc48  H.....H.E....E.H
 4018d0 63c8488b 45d84801 c831f288 108345fc  c.H.E.H..1....E.
 4018e0 018b45fc 3b45ec0f 8c73ffff ff9090c9  ..E.;E...s......
 4018f0 c3554889 e548897d d88975d4 8b45d448  .UH..H.}..u..E.H
 401900 98488945 f0c645ef 00c745fc 00000000  .H.E..E...E.....
 401910 e9990000 00488b55 f04889d0 4801c048  .....H.U.H..H..H
 401920 01d048c1 e0044829 d0488d48 0b48ba01  ..H...H).H.H.H..
 401930 80008000 80008048 89c848f7 ea488d04  .......H..H..H..
 401940 0a48c1f8 0f4889ca 48c1fa3f 4829d048  .H...H..H..?H).H
 401950 8945f048 8b55f048 89d048c1 e0104829  .E.H.U.H..H...H)
 401960 d04829c1 4889ca48 8955f08b 45fc4863  .H).H..H.U..E.Hc
 401970 d0488b45 d84801d0 0fb61048 8b45f089  .H.E.H.....H.E..
 401980 c68b45fc 4863c848 8b45d848 01c831f2  ..E.Hc.H.E.H..1.
 401990 88108b45 fc4863d0 488b45d8 4801d00f  ...E.Hc.H.E.H...
 4019a0 b60084c0 0f94c088 45ef8345 fc010fb6  ........E..E....
 4019b0 45ef83f0 0184c074 0d817dfc ff000000  E......t..}.....
 4019c0 0f8e4fff ffff905d c3554889 e54883ec  ..O....].UH..H..
 4019d0 2048897d e8488975 e0488b45 e00fb600   H.}.H.u.H.E....
 4019e0 0fbed048 8b45e889 d64889c7 e89ff6ff  ...H.E...H......
 4019f0 ff488945 f848837d f800741a 488b55e0  .H.E.H.}..t.H.U.
 401a00 488b45f8 4889d648 89c7e8b1 f6ffff85  H.E.H..H........
 401a10 c00f94c0 eb05b800 000000c9 c3554889  .............UH.
 401a20 e54883ec 6048897d a848b841 42434445  .H..`H.}.H.ABCDE
 401a30 46474848 ba494a4b 4c4d4e4f 50488945  FGHH.IJKLMNOPH.E
 401a40 b0488955 b848b851 52535455 56575848  .H.U.H.QRSTUVWXH
 401a50 ba595a61 62636465 66488945 c0488955  .YZabcdefH.E.H.U
 401a60 c848b867 68696a6b 6c6d6e48 ba6f7071  .H.ghijklmnH.opq
 401a70 72737475 76488945 d0488955 d848b877  rstuvH.E.H.U.H.w
 401a80 78797a31 32333448 ba353637 3839302e  xyz1234H.567890.
 401a90 00488945 e0488955 e8c645ff 01c745f4  .H.E.H.U..E...E.
 401aa0 00000000 488b45a8 4889c7e8 a0f5ffff  ....H.E.H.......
 401ab0 8945f0c7 45f80000 0000eb46 8b45f848  .E..E......F.E.H
 401ac0 63d0488b 45a84801 d00fb600 0fbed048  c.H.E.H........H
 401ad0 8d45b089 d64889c7 e883f5ff ff4885c0  .E...H.......H..
 401ae0 7504c645 ff008b45 f84863d0 488b45a8  u..E...E.Hc.H.E.
 401af0 4801d00f b6003c2e 75048345 f4018345  H.....<.u..E...E
 401b00 f8018b45 f83b45f0 7d06807d ff0075ac  ...E.;E.}..}..u.
 401b10 807dff00 740d837d f4017507 b8010000  .}..t..}..u.....
 401b20 00eb05b8 00000000 83e001c9 c3554889  .............UH.
 401b30 e54883ec 40897dcc 488975c0 c745f78e  .H..@.}.H.u..E..
 401b40 1f4576c6 45fb1b48 b8aea4f3 b5bd9a0b  .Ev.E..H........
 401b50 4848ba26 d1bb8d47 426ad248 8945d048  HH.&...GBj.H.E.H
 401b60 8955d848 b8d91241 ff1287ed 15488945  .U.H...A.....H.E
 401b70 e0c745e8 73823fbc 66c745ec 6261c645  ..E.s.?.f.E.ba.E
 401b80 ee63488d 45f7beac 07000048 89c7e85e  .cH.E......H...^
 401b90 fdffff48 8d45d0be 9b070000 4889c7e8  ...H.E......H...
 401ba0 4dfdffff 837dcc02 741ebf18 304000e8  M....}..t...0@..
 401bb0 8cf4ffff bf443040 00e882f4 ffffb800  .....D0@........
 401bc0 000000e9 84010000 488b45c0 4883c008  ........H.E.H...
 401bd0 488b0048 89c7e842 feffff83 f00184c0  H..H...B........
 401be0 741ebf68 304000e8 54f4ffff bf443040  t..h0@..T....D0@
 401bf0 00e84af4 ffffb800 000000e9 4c010000  ..J.........L...
 401c00 488b45c0 4883c008 488b0048 89c7e83d  H.E.H...H..H...=
 401c10 f4ffff48 83f83176 1ebfb930 4000e81d  ...H..1v...0@...
 401c20 f4ffffbf 44304000 e813f4ff ffb80000  ....D0@.........
 401c30 0000e915 01000048 8b45c048 83c00848  .......H.E.H...H
 401c40 8b00488d 55f74889 d64889c7 e878fdff  ..H.U.H..H...x..
 401c50 ff83f001 84c07431 488b45c0 4883c008  ......t1H.E.H...
 401c60 488b0048 89c6bfd8 304000b8 00000000  H..H....0@......
 401c70 e8fbf3ff ffbf4430 4000e8c1 f3ffffb8  ......D0@.......
 401c80 00000000 e9c30000 00488b45 c04883c0  .........H.E.H..
 401c90 08488b00 4889c6bf fa304000 b8000000  .H..H....0@.....
 401ca0 00e8caf3 ffff488b 45c04883 c008488b  ......H.E.H...H.
 401cb0 00488d55 d04889d6 4889c7e8 8e000000  .H.U.H..H.......
 401cc0 8945fc83 7dfc0274 49837dfc 027f5983  .E..}..tI.}...Y.
 401cd0 7dfc0074 08837dfc 01740eeb 4bbf0b31  }..t..}..t..K..1
 401ce0 4000e859 f3ffffeb 5e488b45 c04883c0  @..Y....^H.E.H..
 401cf0 08488b00 4889c6bf 17314000 b8000000  .H..H....1@.....
 401d00 00e86af3 ffffbf33 314000e8 30f3ffff  ..j....31@..0...
 401d10 eb35bf50 314000e8 24f3ffff bf703140  .5.P1@..$....p1@
 401d20 00e81af3 ffffeb1f 8b45fc89 c6bf9231  .........E.....1
 401d30 4000b800 000000e8 34f3ffff bf443040  @.......4....D0@
 401d40 00e8faf2 ffff90b8 00000000 c9c35548  ..............UH
 401d50 89e54881 ec500200 004889bd b8fdffff  ..H..P...H......
 401d60 4889b5b0 fdffffc7 45e5f7f0 747666c7  H.......E...tvf.
 401d70 45e9316a c645ebac 48b8dde5 fcdf6a91  E.1j.E..H.....j.
 401d80 c5224889 45d9c745 e12dbc5c c448b87e  ."H.E..E.-.\.H.~
 401d90 8c95cdf8 e5f8e448 8945ccc7 45d43852  .......H.E..E.8R
 401da0 0446c645 d86366c7 45c94c32 c645cb6a  .F.E.cf.E.L2.E.j
 401db0 48b881e6 98fc6daa 86e748ba 1729e775  H.....m...H..).u
 401dc0 3e576522 488945b0 488955b8 c645c0f8  >We"H.E.H.U..E..
 401dd0 48b8f8cc 4667c4ae 13d948ba 388c85ef  H...Fg....H.8...
 401de0 49196791 48894590 48895598 c645a0a1  I.g.H.E.H.U..E..
 401df0 48b8a077 12661188 d3dc48ba 758caeb2  H..w.f....H.u...
 401e00 62dfbbee 48898560 ffffff48 899568ff  b...H..`...H..h.
 401e10 ffff48b8 a0ce1c1a c9b76817 48ba6305  ..H.......h.H.c.
 401e20 b0b5d4a1 baed4889 8570ffff ff488995  ......H..p...H..
 401e30 78ffffff 48b8623a c583d71c fd584889  x...H.b:.....XH.
 401e40 458048b8 ff15a74b e1bc2f07 48ba7be9  E.H....K../.H.{.
 401e50 bd91adad 78534889 8530ffff ff488995  ....xSH..0...H..
 401e60 38ffffff 48b84344 5858833d b47748ba  8...H.CDXX.=.wH.
 401e70 c599d426 7befd352 48898540 ffffff48  ...&{..RH..@...H
 401e80 899548ff ffff66c7 8550ffff ff6e1948  ..H...f..P...n.H
 401e90 b84cd936 03cc405d c448bafe 99020afd  .L.6..@].H......
 401ea0 3d8fdd48 898500ff ffff4889 9508ffff  =..H......H.....
 401eb0 ff48b832 fa8dbd81 ae185448 ba28061a  .H.2......TH.(..
 401ec0 9acb18bb 94488985 10ffffff 48899518  .....H......H...
 401ed0 ffffff66 c78520ff ffffaeeb c745fc00  ...f.. ......E..
 401ee0 00000048 8d45e5be 9b010000 4889c7e8  ...H.E......H...
 401ef0 fdf9ffff 488d45d9 bed40500 004889c7  ....H.E......H..
 401f00 e8ecf9ff ff488d45 ccbeb004 00004889  .....H.E......H.
 401f10 c7e8dbf9 ffff488d 45c9be59 02000048  ......H.E..Y...H
 401f20 89c7e8ca f9ffff48 8d45b0be 0a070000  .......H.E......
 401f30 4889c7e8 b9f9ffff 488d4590 bea00901  H.......H.E.....
 401f40 004889c7 e8a8f9ff ff488d85 60ffffff  .H.......H..`...
 401f50 be661900 004889c7 e894f9ff ff488d85  .f...H.......H..
 401f60 30ffffff be961f00 004889c7 e880f9ff  0........H......
 401f70 ff488d85 00ffffff bea40f00 004889c7  .H...........H..
 401f80 e86cf9ff ffbf0000 0000e841 f1ffff48  .l.........A...H
 401f90 8985c8fd ffff488d 85c8fdff ff4889c7  ......H......H..
 401fa0 e88bf0ff ff488945 f0488b45 f08b780c  .....H.E.H.E..x.
 401fb0 488b45f0 8b40108d 4801488b 45f08b40  H.E..@..H.H.E..@
 401fc0 148d906c 07000048 8d75cc48 8d8560fe  ...l...H.u.H..`.
 401fd0 ffff4189 f84889c7 b8000000 00e81ef1  ..A..H..........
 401fe0 ffff488b 8db8fdff ff488d55 c9488d85  ..H......H.U.H..
 401ff0 60ffffff 4989c848 89d14889 c2be0000  `...I..H..H.....
 402000 0000bf00 000000b8 00000000 e882f4ff  ................
 402010 ff8945ec 837dec02 740ab801 000000e9  ..E..}..t.......
 402020 bd010000 488b8db8 fdffff48 8d9530ff  ....H......H..0.
 402030 ffff488d 85c0feff ffbe3200 00004889  ..H.......2...H.
 402040 c7b80000 0000e848 f4ffff89 45ec837d  .......H....E..}
 402050 ec00790a b8030000 00e98301 0000488b  ..y...........H.
 402060 8db8fdff ff488d95 00ffffff 488d8580  .....H......H...
 402070 feffffbe 32000000 4889c7b8 00000000  ....2...H.......
 402080 e80ef4ff ff8945ec 837dec00 790ab804  ......E..}..y...
 402090 000000e9 49010000 488d55e5 488d8540  ....I...H.U.H..@
 4020a0 feffffbe 14000000 4889c7b8 00000000  ........H.......
 4020b0 e8def3ff ff8945ec 837dec02 740ab805  ......E..}..t...
 4020c0 000000e9 19010000 4c8d8580 feffff48  ........L......H
 4020d0 8dbd60fe ffff488d 8dc0feff ff488d95  ..`...H......H..
 4020e0 40feffff 488d75d9 488d85d0 fdffff4d  @...H.u.H......M
 4020f0 89c14989 f84889c7 b8000000 00e8feef  ..I..H..........
 402100 ffff488d 8dd0fdff ff488b95 b0fdffff  ..H......H......
 402110 488d8560 ffffff49 89c84889 d14889c2  H..`...I..H..H..
 402120 be000000 00bf0000 0000b800 000000e8  ................
 402130 5ff3ffff 8945ec83 7dec0275 0ab80200  _....E..}..u....
 402140 0000e99a 00000048 8bbdb0fd ffff488b  .......H......H.
 402150 b5b8fdff ff488d55 c9488d45 b04883ec  .....H.U.H.E.H..
 402160 08488d8d d0fdffff 514989f9 4989f048  .H......QI..I..H
 402170 89d14889 c2be0000 0000bf00 000000b8  ..H.............
 402180 00000000 e80af3ff ff4883c4 108945ec  .........H....E.
 402190 837dec00 7907b806 000000eb 44488d8d  .}..y.......DH..
 4021a0 d0fdffff 488b95b0 fdffff48 8d459049  ....H......H.E.I
 4021b0 89c84889 d14889c2 be000000 00bf0000  ..H..H..........
 4021c0 0000b800 000000e8 c7f2ffff 8945ec83  .............E..
 4021d0 7dec0079 07b80700 0000eb05 b8000000  }..y............
 4021e0 00c9c3                               ...             
Contents of section .fini:
 4021e4 f30f1efa 4883ec08 4883c408 c3        ....H...H....   
Contents of section .rodata:
 403000 01000200 00000000 00000000 00000000  ................
 403010 24007200 00000000 0a455252 4f523a20  $.r......ERROR: 
 403020 596f7520 6d757374 20737065 63696679  You must specify
 403030 206f6e65 2066696c 6520746f 20737562   one file to sub
 403040 6d697400 596f7572 2066696c 65207761  mit.Your file wa
 403050 73204e4f 54207375 626d6974 7465640a  s NOT submitted.
 403060 00000000 00000000 0a455252 4f523a20  .........ERROR: 
 403070 494e5641 4c494420 46494c45 4e414d45  INVALID FILENAME
 403080 2e205468 65206669 6c656e61 6d652063  . The filename c
 403090 616e206f 6e6c7920 636f6e74 61696e20  an only contain 
 4030a0 616c7068 616e756d 65726963 20636861  alphanumeric cha
 4030b0 72616374 6572732e 000a4552 524f523a  racters...ERROR:
 4030c0 2046494c 454e414d 4520544f 4f204c4f   FILENAME TOO LO
 4030d0 4e472e00 00000000 0a455252 4f523a20  NG.......ERROR: 
 4030e0 4e4f5420 414e2041 5353454d 424c5920  NOT AN ASSEMBLY 
 4030f0 46494c45 3a202573 0a000a53 75626d69  FILE: %s...Submi
 403100 7474696e 673a2025 730a0053 75626d69  tting: %s..Submi
 403110 74746564 210a000a 4552524f 523a2046  tted!...ERROR: F
 403120 494c4520 4e4f5420 464f554e 443a2025  ILE NOT FOUND: %
 403130 730a0046 696c6520 77617320 4e4f5420  s..File was NOT 
 403140 7375626d 69747465 642e0a00 00000000  submitted.......
 403150 0a455252 4f523a20 46494c45 20414c52  .ERROR: FILE ALR
 403160 45414459 20535542 4d495454 45442e00  EADY SUBMITTED..
 403170 596f7520 63616e20 6f6e6c79 20737562  You can only sub
 403180 6d697420 61206669 6c65206f 6e63652e  mit a file once.
 403190 0a000a49 4e544552 4e414c20 4552524f  ...INTERNAL ERRO
 4031a0 523a2023 25640a00                    R: #%d..        
Contents of section .eh_frame_hdr:
 4031a8 011b033b 74000000 0d000000 78deffff  ...;t.......x...
 4031b8 b8000000 68dfffff 90000000 98dfffff  ....h...........
 4031c8 a4000000 4ee0ffff e0000000 fde0ffff  ....N...........
 4031d8 00010000 92e1ffff 20010000 ebe2ffff  ........ .......
 4031e8 40010000 82e6ffff 6c010000 49e7ffff  @.......l...I...
 4031f8 8c010000 21e8ffff ac010000 75e8ffff  ....!.......u...
 403208 cc010000 85e9ffff ec010000 a6ebffff  ................
 403218 0c020000                             ....            
Contents of section .eh_frame:
 403220 14000000 00000000 017a5200 01781001  .........zR..x..
 403230 1b0c0708 90010000 10000000 1c000000  ................
 403240 d0deffff 26000000 00440710 10000000  ....&....D......
 403250 30000000 ecdeffff 05000000 00000000  0...............
 403260 24000000 44000000 b8ddffff f0000000  $...D...........
 403270 000e1046 0e184a0f 0b770880 003f1a3b  ...F..J..w...?.;
 403280 2a332422 00000000 1c000000 6c000000  *3$"........l...
 403290 66dfffff af000000 00410e10 8602430d  f........A....C.
 4032a0 0602aa0c 07080000 1c000000 8c000000  ................
 4032b0 f5dfffff 95000000 00410e10 8602430d  .........A....C.
 4032c0 0602900c 07080000 1c000000 ac000000  ................
 4032d0 6ae0ffff 59010000 00410e10 8602430d  j...Y....A....C.
 4032e0 06035401 0c070800 28000000 cc000000  ..T.....(.......
 4032f0 a3e1ffff 97030000 00410e10 8602430d  .........A....C.
 403300 06508f03 8e048d05 8c068307 0382030c  .P..............
 403310 07080000 1c000000 f8000000 0ee5ffff  ................
 403320 c7000000 00410e10 8602430d 0602c20c  .....A....C.....
 403330 07080000 1c000000 18010000 b5e5ffff  ................
 403340 d8000000 00410e10 8602430d 0602d30c  .....A....C.....
 403350 07080000 1c000000 38010000 6de6ffff  ........8...m...
 403360 54000000 00410e10 8602430d 06024f0c  T....A....C...O.
 403370 07080000 1c000000 58010000 a1e6ffff  ........X.......
 403380 10010000 00410e10 8602430d 06030b01  .....A....C.....
 403390 0c070800 1c000000 78010000 91e7ffff  ........x.......
 4033a0 21020000 00410e10 8602430d 06031c02  !....A....C.....
 4033b0 0c070800 1c000000 98010000 92e9ffff  ................
 4033c0 95040000 00410e10 8602430d 06039004  .....A....C.....
 4033d0 0c070800 00000000                    ........        
Contents of section .init_array:
 404e00 f0114000 00000000                    ..@.....        
Contents of section .fini_array:
 404e08 c0114000 00000000                    ..@.....        
Contents of section .dynamic:
 404e10 01000000 00000000 69000000 00000000  ........i.......
 404e20 0c000000 00000000 00104000 00000000  ..........@.....
 404e30 0d000000 00000000 e4214000 00000000  .........!@.....
 404e40 19000000 00000000 004e4000 00000000  .........N@.....
 404e50 1b000000 00000000 08000000 00000000  ................
 404e60 1a000000 00000000 084e4000 00000000  .........N@.....
 404e70 1c000000 00000000 08000000 00000000  ................
 404e80 f5feff6f 00000000 a0034000 00000000  ...o......@.....
 404e90 05000000 00000000 88054000 00000000  ..........@.....
 404ea0 06000000 00000000 c0034000 00000000  ..........@.....
 404eb0 0a000000 00000000 cf000000 00000000  ................
 404ec0 0b000000 00000000 18000000 00000000  ................
 404ed0 15000000 00000000 00000000 00000000  ................
 404ee0 03000000 00000000 00504000 00000000  .........P@.....
 404ef0 02000000 00000000 50010000 00000000  ........P.......
 404f00 14000000 00000000 07000000 00000000  ................
 404f10 17000000 00000000 10074000 00000000  ..........@.....
 404f20 07000000 00000000 b0064000 00000000  ..........@.....
 404f30 08000000 00000000 60000000 00000000  ........`.......
 404f40 09000000 00000000 18000000 00000000  ................
 404f50 feffff6f 00000000 80064000 00000000  ...o......@.....
 404f60 ffffff6f 00000000 01000000 00000000  ...o............
 404f70 f0ffff6f 00000000 58064000 00000000  ...o....X.@.....
 404f80 00000000 00000000 00000000 00000000  ................
 404f90 00000000 00000000 00000000 00000000  ................
 404fa0 00000000 00000000 00000000 00000000  ................
 404fb0 00000000 00000000 00000000 00000000  ................
 404fc0 00000000 00000000 00000000 00000000  ................
 404fd0 00000000 00000000 00000000 00000000  ................
Contents of section .got:
 404fe0 00000000 00000000 00000000 00000000  ................
 404ff0 00000000 00000000 00000000 00000000  ................
Contents of section .got.plt:
 405000 104e4000 00000000 00000000 00000000  .N@.............
 405010 00000000 00000000 36104000 00000000  ........6.@.....
 405020 46104000 00000000 56104000 00000000  F.@.....V.@.....
 405030 66104000 00000000 76104000 00000000  f.@.....v.@.....
 405040 86104000 00000000 96104000 00000000  ..@.......@.....
 405050 a6104000 00000000 b6104000 00000000  ..@.......@.....
 405060 c6104000 00000000 d6104000 00000000  ..@.......@.....
 405070 e6104000 00000000 f6104000 00000000  ..@.......@.....
 405080 06114000 00000000                    ..@.....        
Contents of section .data:
 405088 00000000                             ....            
Contents of section .comment:
 0000 4743433a 2028474e 55292031 312e342e  GCC: (GNU) 11.4.
 0010 31203230 32333036 30352028 52656420  1 20230605 (Red 
 0020 48617420 31312e34 2e312d32 2900      Hat 11.4.1-2).  
Contents of section .gnu.build.attributes:
 407090 0b000000 10000000 00010000 47412401  ............GA$.
 4070a0 33703132 31320000 36114000 00000000  3p1212..6.@.....
 4070b0 36114000 00000000 20000000 00000000  6.@..... .......
 4070c0 00010000 47412405 72756e6e 696e6720  ....GA$.running 
 4070d0 67636320 31312e34 2e312032 30323330  gcc 11.4.1 20230
 4070e0 36303500 20000000 00000000 00010000  605. ...........
 4070f0 47412405 616e6e6f 62696e20 67636320  GA$.annobin gcc 
 407100 31312e34 2e312032 30323330 36303500  11.4.1 20230605.
 407110 0b000000 00000000 00010000 47412a47  ............GA*G
 407120 4f57006a 05220000 06000000 00000000  OW.j."..........
 407130 00010000 47412a02 03000000 0f000000  ....GA*.........
 407140 00000000 00010000 47412b73 7461636b  ........GA+stack
 407150 5f636c61 73680000 13000000 00000000  _clash..........
 407160 00010000 47412a63 665f7072 6f746563  ....GA*cf_protec
 407170 74696f6e 00080000 0d000000 00000000  tion............
 407180 00010000 47412a46 4f525449 465900ff  ....GA*FORTIFY..
 407190 00000000 16000000 00000000 00010000  ................
 4071a0 47412b47 4c494243 58585f41 53534552  GA+GLIBCXX_ASSER
 4071b0 54494f4e 53000000 06000000 00000000  TIONS...........
 4071c0 00010000 47412a07 03000000 05000000  ....GA*.........
 4071d0 00000000 00010000 47412108 00000000  ........GA!.....
 4071e0 11000000 00000000 00010000 47412173  ............GA!s
 4071f0 7461636b 5f726561 6c69676e 00000000  tack_realign....
 407200 0b000000 10000000 00010000 47412401  ............GA$.
 407210 33703132 31320000 10114000 00000000  3p1212....@.....
 407220 10114000 00000000 20000000 00000000  ..@..... .......
 407230 00010000 47412405 72756e6e 696e6720  ....GA$.running 
 407240 67636320 31312e34 2e312032 30323330  gcc 11.4.1 20230
 407250 36303500 20000000 00000000 00010000  605. ...........
 407260 47412405 616e6e6f 62696e20 67636320  GA$.annobin gcc 
 407270 31312e34 2e312032 30323330 36303500  11.4.1 20230605.
 407280 0b000000 00000000 00010000 47412a47  ............GA*G
 407290 4f57006a 05220000 06000000 00000000  OW.j."..........
 4072a0 00010000 47412a02 03000000 0f000000  ....GA*.........
 4072b0 00000000 00010000 47412b73 7461636b  ........GA+stack
 4072c0 5f636c61 73680000 13000000 00000000  _clash..........
 4072d0 00010000 47412a63 665f7072 6f746563  ....GA*cf_protec
 4072e0 74696f6e 00080000 0d000000 00000000  tion............
 4072f0 00010000 47412a46 4f525449 465900ff  ....GA*FORTIFY..
 407300 00000000 16000000 00000000 00010000  ................
 407310 47412b47 4c494243 58585f41 53534552  GA+GLIBCXX_ASSER
 407320 54494f4e 53000000 06000000 00000000  TIONS...........
 407330 00010000 47412a07 03000000 05000000  ....GA*.........
 407340 00000000 00010000 47412108 00000000  ........GA!.....
 407350 11000000 00000000 00010000 47412173  ............GA!s
 407360 7461636b 5f726561 6c69676e 00000000  tack_realign....
 407370 0b000000 10000000 00010000 47412401  ............GA$.
 407380 33703132 31320000 10114000 00000000  3p1212....@.....
 407390 10114000 00000000 20000000 00000000  ..@..... .......
 4073a0 00010000 47412405 72756e6e 696e6720  ....GA$.running 
 4073b0 67636320 31312e34 2e312032 30323330  gcc 11.4.1 20230
 4073c0 36303500 20000000 00000000 00010000  605. ...........
 4073d0 47412405 616e6e6f 62696e20 67636320  GA$.annobin gcc 
 4073e0 31312e34 2e312032 30323330 36303500  11.4.1 20230605.
 4073f0 0b000000 00000000 00010000 47412a47  ............GA*G
 407400 4f57006a 05220000 06000000 00000000  OW.j."..........
 407410 00010000 47412a02 03000000 0f000000  ....GA*.........
 407420 00000000 00010000 47412b73 7461636b  ........GA+stack
 407430 5f636c61 73680000 13000000 00000000  _clash..........
 407440 00010000 47412a63 665f7072 6f746563  ....GA*cf_protec
 407450 74696f6e 00080000 0d000000 00000000  tion............
 407460 00010000 47412a46 4f525449 465900ff  ....GA*FORTIFY..
 407470 00000000 16000000 00000000 00010000  ................
 407480 47412b47 4c494243 58585f41 53534552  GA+GLIBCXX_ASSER
 407490 54494f4e 53000000 06000000 00000000  TIONS...........
 4074a0 00010000 47412a07 03000000 05000000  ....GA*.........
 4074b0 00000000 00010000 47412108 00000000  ........GA!.....
 4074c0 11000000 00000000 00010000 47412173  ............GA!s
 4074d0 7461636b 5f726561 6c69676e 00000000  tack_realign....
 4074e0 0b000000 10000000 00010000 47412401  ............GA$.
 4074f0 33703132 31320000 10114000 00000000  3p1212....@.....
 407500 10114000 00000000 20000000 00000000  ..@..... .......
 407510 00010000 47412405 72756e6e 696e6720  ....GA$.running 
 407520 67636320 31312e34 2e312032 30323330  gcc 11.4.1 20230
 407530 36303500 20000000 00000000 00010000  605. ...........
 407540 47412405 616e6e6f 62696e20 67636320  GA$.annobin gcc 
 407550 31312e34 2e312032 30323330 36303500  11.4.1 20230605.
 407560 0b000000 00000000 00010000 47412a47  ............GA*G
 407570 4f57006a 05220000 06000000 00000000  OW.j."..........
 407580 00010000 47412a02 03000000 0f000000  ....GA*.........
 407590 00000000 00010000 47412b73 7461636b  ........GA+stack
 4075a0 5f636c61 73680000 13000000 00000000  _clash..........
 4075b0 00010000 47412a63 665f7072 6f746563  ....GA*cf_protec
 4075c0 74696f6e 00080000 0d000000 00000000  tion............
 4075d0 00010000 47412a46 4f525449 465900ff  ....GA*FORTIFY..
 4075e0 00000000 16000000 00000000 00010000  ................
 4075f0 47412b47 4c494243 58585f41 53534552  GA+GLIBCXX_ASSER
 407600 54494f4e 53000000 06000000 00000000  TIONS...........
 407610 00010000 47412a07 03000000 05000000  ....GA*.........
 407620 00000000 00010000 47412108 00000000  ........GA!.....
 407630 11000000 00000000 00010000 47412173  ............GA!s
 407640 7461636b 5f726561 6c69676e 00000000  tack_realign....
 407650 0b000000 10000000 00010000 47412401  ............GA$.
 407660 33703132 31320000 10114000 00000000  3p1212....@.....
 407670 10114000 00000000 20000000 00000000  ..@..... .......
 407680 00010000 47412405 72756e6e 696e6720  ....GA$.running 
 407690 67636320 31312e34 2e312032 30323330  gcc 11.4.1 20230
 4076a0 36303500 20000000 00000000 00010000  605. ...........
 4076b0 47412405 616e6e6f 62696e20 67636320  GA$.annobin gcc 
 4076c0 31312e34 2e312032 30323330 36303500  11.4.1 20230605.
 4076d0 0b000000 00000000 00010000 47412a47  ............GA*G
 4076e0 4f57006a 05220000 06000000 00000000  OW.j."..........
 4076f0 00010000 47412a02 03000000 0f000000  ....GA*.........
 407700 00000000 00010000 47412b73 7461636b  ........GA+stack
 407710 5f636c61 73680000 13000000 00000000  _clash..........
 407720 00010000 47412a63 665f7072 6f746563  ....GA*cf_protec
 407730 74696f6e 00080000 0d000000 00000000  tion............
 407740 00010000 47412a46 4f525449 465900ff  ....GA*FORTIFY..
 407750 00000000 16000000 00000000 00010000  ................
 407760 47412b47 4c494243 58585f41 53534552  GA+GLIBCXX_ASSER
 407770 54494f4e 53000000 06000000 00000000  TIONS...........
 407780 00010000 47412a07 03000000 05000000  ....GA*.........
 407790 00000000 00010000 47412108 00000000  ........GA!.....
 4077a0 11000000 00000000 00010000 47412173  ............GA!s
 4077b0 7461636b 5f726561 6c69676e 00000000  tack_realign....
 4077c0 0b000000 10000000 00010000 47412401  ............GA$.
 4077d0 33703132 31320000 36114000 00000000  3p1212..6.@.....
 4077e0 36114000 00000000 20000000 00000000  6.@..... .......
 4077f0 00010000 47412405 72756e6e 696e6720  ....GA$.running 
 407800 67636320 31312e34 2e312032 30323330  gcc 11.4.1 20230
 407810 36303500 20000000 00000000 00010000  605. ...........
 407820 47412405 616e6e6f 62696e20 67636320  GA$.annobin gcc 
 407830 31312e34 2e312032 30323330 36303500  11.4.1 20230605.
 407840 0b000000 00000000 00010000 47412a47  ............GA*G
 407850 4f57006a 05220000 06000000 00000000  OW.j."..........
 407860 00010000 47412a02 03000000 0f000000  ....GA*.........
 407870 00000000 00010000 47412b73 7461636b  ........GA+stack
 407880 5f636c61 73680000 13000000 00000000  _clash..........
 407890 00010000 47412a63 665f7072 6f746563  ....GA*cf_protec
 4078a0 74696f6e 00080000 0d000000 00000000  tion............
 4078b0 00010000 47412a46 4f525449 465900ff  ....GA*FORTIFY..
 4078c0 00000000 16000000 00000000 00010000  ................
 4078d0 47412b47 4c494243 58585f41 53534552  GA+GLIBCXX_ASSER
 4078e0 54494f4e 53000000 06000000 00000000  TIONS...........
 4078f0 00010000 47412a07 03000000 05000000  ....GA*.........
 407900 00000000 00010000 47412108 00000000  ........GA!.....
 407910 11000000 00000000 00010000 47412173  ............GA!s
 407920 7461636b 5f726561 6c69676e 00000000  tack_realign....
 407930 0b000000 10000000 00010000 47412401  ............GA$.
 407940 33703132 31320000 10114000 00000000  3p1212....@.....
 407950 10114000 00000000 20000000 00000000  ..@..... .......
 407960 00010000 47412405 72756e6e 696e6720  ....GA$.running 
 407970 67636320 31312e34 2e312032 30323330  gcc 11.4.1 20230
 407980 36303500 20000000 00000000 00010000  605. ...........
 407990 47412405 616e6e6f 62696e20 67636320  GA$.annobin gcc 
 4079a0 31312e34 2e312032 30323330 36303500  11.4.1 20230605.
 4079b0 0b000000 00000000 00010000 47412a47  ............GA*G
 4079c0 4f57006a 05220000 06000000 00000000  OW.j."..........
 4079d0 00010000 47412a02 03000000 0f000000  ....GA*.........
 4079e0 00000000 00010000 47412b73 7461636b  ........GA+stack
 4079f0 5f636c61 73680000 13000000 00000000  _clash..........
 407a00 00010000 47412a63 665f7072 6f746563  ....GA*cf_protec
 407a10 74696f6e 00080000 0d000000 00000000  tion............
 407a20 00010000 47412a46 4f525449 465900ff  ....GA*FORTIFY..
 407a30 00000000 16000000 00000000 00010000  ................
 407a40 47412b47 4c494243 58585f41 53534552  GA+GLIBCXX_ASSER
 407a50 54494f4e 53000000 06000000 00000000  TIONS...........
 407a60 00010000 47412a07 03000000 05000000  ....GA*.........
 407a70 00000000 00010000 47412108 00000000  ........GA!.....
 407a80 11000000 00000000 00010000 47412173  ............GA!s
 407a90 7461636b 5f726561 6c69676e 00000000  tack_realign....
 407aa0 0b000000 10000000 00010000 47412401  ............GA$.
 407ab0 33703132 31320000 10114000 00000000  3p1212....@.....
 407ac0 10114000 00000000 20000000 00000000  ..@..... .......
 407ad0 00010000 47412405 72756e6e 696e6720  ....GA$.running 
 407ae0 67636320 31312e34 2e312032 30323330  gcc 11.4.1 20230
 407af0 36303500 20000000 00000000 00010000  605. ...........
 407b00 47412405 616e6e6f 62696e20 67636320  GA$.annobin gcc 
 407b10 31312e34 2e312032 30323330 36303500  11.4.1 20230605.
 407b20 0b000000 00000000 00010000 47412a47  ............GA*G
 407b30 4f57006a 05220000 06000000 00000000  OW.j."..........
 407b40 00010000 47412a02 03000000 0f000000  ....GA*.........
 407b50 00000000 00010000 47412b73 7461636b  ........GA+stack
 407b60 5f636c61 73680000 13000000 00000000  _clash..........
 407b70 00010000 47412a63 665f7072 6f746563  ....GA*cf_protec
 407b80 74696f6e 00080000 0d000000 00000000  tion............
 407b90 00010000 47412a46 4f525449 465900ff  ....GA*FORTIFY..
 407ba0 00000000 16000000 00000000 00010000  ................
 407bb0 47412b47 4c494243 58585f41 53534552  GA+GLIBCXX_ASSER
 407bc0 54494f4e 53000000 06000000 00000000  TIONS...........
 407bd0 00010000 47412a07 03000000 05000000  ....GA*.........
 407be0 00000000 00010000 47412108 00000000  ........GA!.....
 407bf0 11000000 00000000 00010000 47412173  ............GA!s
 407c00 7461636b 5f726561 6c69676e 00000000  tack_realign....
 407c10 0b000000 10000000 00010000 47412401  ............GA$.
 407c20 33703132 31320000 10114000 00000000  3p1212....@.....
 407c30 10114000 00000000 20000000 00000000  ..@..... .......
 407c40 00010000 47412405 72756e6e 696e6720  ....GA$.running 
 407c50 67636320 31312e34 2e312032 30323330  gcc 11.4.1 20230
 407c60 36303500 20000000 00000000 00010000  605. ...........
 407c70 47412405 616e6e6f 62696e20 67636320  GA$.annobin gcc 
 407c80 31312e34 2e312032 30323330 36303500  11.4.1 20230605.
 407c90 0b000000 00000000 00010000 47412a47  ............GA*G
 407ca0 4f57006a 05220000 06000000 00000000  OW.j."..........
 407cb0 00010000 47412a02 03000000 0f000000  ....GA*.........
 407cc0 00000000 00010000 47412b73 7461636b  ........GA+stack
 407cd0 5f636c61 73680000 13000000 00000000  _clash..........
 407ce0 00010000 47412a63 665f7072 6f746563  ....GA*cf_protec
 407cf0 74696f6e 00080000 0d000000 00000000  tion............
 407d00 00010000 47412a46 4f525449 465900ff  ....GA*FORTIFY..
 407d10 00000000 16000000 00000000 00010000  ................
 407d20 47412b47 4c494243 58585f41 53534552  GA+GLIBCXX_ASSER
 407d30 54494f4e 53000000 06000000 00000000  TIONS...........
 407d40 00010000 47412a07 03000000 05000000  ....GA*.........
 407d50 00000000 00010000 47412108 00000000  ........GA!.....
 407d60 11000000 00000000 00010000 47412173  ............GA!s
 407d70 7461636b 5f726561 6c69676e 00000000  tack_realign....
 407d80 0b000000 10000000 00010000 47412401  ............GA$.
 407d90 33703132 31320000 10114000 00000000  3p1212....@.....
 407da0 10114000 00000000 20000000 00000000  ..@..... .......
 407db0 00010000 47412405 72756e6e 696e6720  ....GA$.running 
 407dc0 67636320 31312e34 2e312032 30323330  gcc 11.4.1 20230
 407dd0 36303500 20000000 00000000 00010000  605. ...........
 407de0 47412405 616e6e6f 62696e20 67636320  GA$.annobin gcc 
 407df0 31312e34 2e312032 30323330 36303500  11.4.1 20230605.
 407e00 0b000000 00000000 00010000 47412a47  ............GA*G
 407e10 4f57006a 05220000 06000000 00000000  OW.j."..........
 407e20 00010000 47412a02 03000000 0f000000  ....GA*.........
 407e30 00000000 00010000 47412b73 7461636b  ........GA+stack
 407e40 5f636c61 73680000 13000000 00000000  _clash..........
 407e50 00010000 47412a63 665f7072 6f746563  ....GA*cf_protec
 407e60 74696f6e 00080000 0d000000 00000000  tion............
 407e70 00010000 47412a46 4f525449 465900ff  ....GA*FORTIFY..
 407e80 00000000 16000000 00000000 00010000  ................
 407e90 47412b47 4c494243 58585f41 53534552  GA+GLIBCXX_ASSER
 407ea0 54494f4e 53000000 06000000 00000000  TIONS...........
 407eb0 00010000 47412a07 03000000 05000000  ....GA*.........
 407ec0 00000000 00010000 47412108 00000000  ........GA!.....
 407ed0 11000000 00000000 00010000 47412173  ............GA!s
 407ee0 7461636b 5f726561 6c69676e 00000000  tack_realign....
 407ef0 0b000000 10000000 00010000 47412401  ............GA$.
 407f00 33703132 31320000 40114000 00000000  3p1212..@.@.....
 407f10 36114000 00000000 20000000 00000000  6.@..... .......
 407f20 00010000 47412405 72756e6e 696e6720  ....GA$.running 
 407f30 67636320 31312e34 2e312032 30323330  gcc 11.4.1 20230
 407f40 36303500 20000000 00000000 00010000  605. ...........
 407f50 47412405 616e6e6f 62696e20 67636320  GA$.annobin gcc 
 407f60 31312e34 2e312032 30323330 36303500  11.4.1 20230605.
 407f70 0b000000 00000000 00010000 47412a47  ............GA*G
 407f80 4f57006a 05220000 06000000 00000000  OW.j."..........
 407f90 00010000 47412a02 03000000 0f000000  ....GA*.........
 407fa0 00000000 00010000 47412b73 7461636b  ........GA+stack
 407fb0 5f636c61 73680000 13000000 00000000  _clash..........
 407fc0 00010000 47412a63 665f7072 6f746563  ....GA*cf_protec
 407fd0 74696f6e 00080000 0d000000 00000000  tion............
 407fe0 00010000 47412a46 4f525449 465900ff  ....GA*FORTIFY..
 407ff0 00000000 16000000 00000000 00010000  ................
 408000 47412b47 4c494243 58585f41 53534552  GA+GLIBCXX_ASSER
 408010 54494f4e 53000000 06000000 00000000  TIONS...........
 408020 00010000 47412a07 03000000 05000000  ....GA*.........
 408030 00000000 00010000 47412108 00000000  ........GA!.....
 408040 11000000 00000000 00010000 47412173  ............GA!s
 408050 7461636b 5f726561 6c69676e 00000000  tack_realign....
 408060 0d000000 10000000 01010000 47412a46  ............GA*F
 408070 4f525449 465900ff 00000000 40114000  ORTIFY......@.@.
 408080 00000000 45114000 00000000 16000000  ....E.@.........
 408090 00000000 01010000 47412b47 4c494243  ........GA+GLIBC
 4080a0 58585f41 53534552 54494f4e 53000000  XX_ASSERTIONS...
 4080b0 0b000000 10000000 00010000 47412401  ............GA$.
 4080c0 33703132 31320000 10114000 00000000  3p1212....@.....
 4080d0 10114000 00000000 20000000 00000000  ..@..... .......
 4080e0 00010000 47412405 72756e6e 696e6720  ....GA$.running 
 4080f0 67636320 31312e34 2e312032 30323330  gcc 11.4.1 20230
 408100 36303500 20000000 00000000 00010000  605. ...........
 408110 47412405 616e6e6f 62696e20 67636320  GA$.annobin gcc 
 408120 31312e34 2e312032 30323330 36303500  11.4.1 20230605.
 408130 0b000000 00000000 00010000 47412a47  ............GA*G
 408140 4f57006a 05220000 06000000 00000000  OW.j."..........
 408150 00010000 47412a02 03000000 0f000000  ....GA*.........
 408160 00000000 00010000 47412b73 7461636b  ........GA+stack
 408170 5f636c61 73680000 13000000 00000000  _clash..........
 408180 00010000 47412a63 665f7072 6f746563  ....GA*cf_protec
 408190 74696f6e 00080000 0d000000 00000000  tion............
 4081a0 00010000 47412a46 4f525449 465900ff  ....GA*FORTIFY..
 4081b0 00000000 16000000 00000000 00010000  ................
 4081c0 47412b47 4c494243 58585f41 53534552  GA+GLIBCXX_ASSER
 4081d0 54494f4e 53000000 06000000 00000000  TIONS...........
 4081e0 00010000 47412a07 03000000 05000000  ....GA*.........
 4081f0 00000000 00010000 47412108 00000000  ........GA!.....
 408200 11000000 00000000 00010000 47412173  ............GA!s
 408210 7461636b 5f726561 6c69676e 00000000  tack_realign....
 408220 0b000000 10000000 00010000 47412401  ............GA$.
 408230 33703132 31320000 10114000 00000000  3p1212....@.....
 408240 10114000 00000000 20000000 00000000  ..@..... .......
 408250 00010000 47412405 72756e6e 696e6720  ....GA$.running 
 408260 67636320 31312e34 2e312032 30323330  gcc 11.4.1 20230
 408270 36303500 20000000 00000000 00010000  605. ...........
 408280 47412405 616e6e6f 62696e20 67636320  GA$.annobin gcc 
 408290 31312e34 2e312032 30323330 36303500  11.4.1 20230605.
 4082a0 0b000000 00000000 00010000 47412a47  ............GA*G
 4082b0 4f57006a 05220000 06000000 00000000  OW.j."..........
 4082c0 00010000 47412a02 03000000 0f000000  ....GA*.........
 4082d0 00000000 00010000 47412b73 7461636b  ........GA+stack
 4082e0 5f636c61 73680000 13000000 00000000  _clash..........
 4082f0 00010000 47412a63 665f7072 6f746563  ....GA*cf_protec
 408300 74696f6e 00080000 0d000000 00000000  tion............
 408310 00010000 47412a46 4f525449 465900ff  ....GA*FORTIFY..
 408320 00000000 16000000 00000000 00010000  ................
 408330 47412b47 4c494243 58585f41 53534552  GA+GLIBCXX_ASSER
 408340 54494f4e 53000000 06000000 00000000  TIONS...........
 408350 00010000 47412a07 03000000 05000000  ....GA*.........
 408360 00000000 00010000 47412108 00000000  ........GA!.....
 408370 11000000 00000000 00010000 47412173  ............GA!s
 408380 7461636b 5f726561 6c69676e 00000000  tack_realign....
 408390 0b000000 10000000 00010000 47412401  ............GA$.
 4083a0 33703132 31320000 10114000 00000000  3p1212....@.....
 4083b0 10114000 00000000 20000000 00000000  ..@..... .......
 4083c0 00010000 47412405 72756e6e 696e6720  ....GA$.running 
 4083d0 67636320 31312e34 2e312032 30323330  gcc 11.4.1 20230
 4083e0 36303500 20000000 00000000 00010000  605. ...........
 4083f0 47412405 616e6e6f 62696e20 67636320  GA$.annobin gcc 
 408400 31312e34 2e312032 30323330 36303500  11.4.1 20230605.
 408410 0b000000 00000000 00010000 47412a47  ............GA*G
 408420 4f57006a 05220000 06000000 00000000  OW.j."..........
 408430 00010000 47412a02 03000000 0f000000  ....GA*.........
 408440 00000000 00010000 47412b73 7461636b  ........GA+stack
 408450 5f636c61 73680000 13000000 00000000  _clash..........
 408460 00010000 47412a63 665f7072 6f746563  ....GA*cf_protec
 408470 74696f6e 00080000 0d000000 00000000  tion............
 408480 00010000 47412a46 4f525449 465900ff  ....GA*FORTIFY..
 408490 00000000 16000000 00000000 00010000  ................
 4084a0 47412b47 4c494243 58585f41 53534552  GA+GLIBCXX_ASSER
 4084b0 54494f4e 53000000 06000000 00000000  TIONS...........
 4084c0 00010000 47412a07 03000000 05000000  ....GA*.........
 4084d0 00000000 00010000 47412108 00000000  ........GA!.....
 4084e0 11000000 00000000 00010000 47412173  ............GA!s
 4084f0 7461636b 5f726561 6c69676e 00000000  tack_realign....
 408500 0b000000 10000000 00010000 47412401  ............GA$.
 408510 33703132 31320000 10114000 00000000  3p1212....@.....
 408520 10114000 00000000 20000000 00000000  ..@..... .......
 408530 00010000 47412405 72756e6e 696e6720  ....GA$.running 
 408540 67636320 31312e34 2e312032 30323330  gcc 11.4.1 20230
 408550 36303500 20000000 00000000 00010000  605. ...........
 408560 47412405 616e6e6f 62696e20 67636320  GA$.annobin gcc 
 408570 31312e34 2e312032 30323330 36303500  11.4.1 20230605.
 408580 0b000000 00000000 00010000 47412a47  ............GA*G
 408590 4f57006a 05220000 06000000 00000000  OW.j."..........
 4085a0 00010000 47412a02 03000000 0f000000  ....GA*.........
 4085b0 00000000 00010000 47412b73 7461636b  ........GA+stack
 4085c0 5f636c61 73680000 13000000 00000000  _clash..........
 4085d0 00010000 47412a63 665f7072 6f746563  ....GA*cf_protec
 4085e0 74696f6e 00080000 0d000000 00000000  tion............
 4085f0 00010000 47412a46 4f525449 465900ff  ....GA*FORTIFY..
 408600 00000000 16000000 00000000 00010000  ................
 408610 47412b47 4c494243 58585f41 53534552  GA+GLIBCXX_ASSER
 408620 54494f4e 53000000 06000000 00000000  TIONS...........
 408630 00010000 47412a07 03000000 05000000  ....GA*.........
 408640 00000000 00010000 47412108 00000000  ........GA!.....
 408650 11000000 00000000 00010000 47412173  ............GA!s
 408660 7461636b 5f726561 6c69676e 00000000  tack_realign....
 408670 08000000 10000000 00010000 47412401  ............GA$.
 408680 33613100 10114000 00000000 36114000  3a1...@.....6.@.
 408690 00000000 08000000 10000000 00010000  ................
 4086a0 47412401 33613100 45114000 00000000  GA$.3a1.E.@.....
 4086b0 45114000 00000000 08000000 10000000  E.@.............
 4086c0 00010000 47412401 33613100 00104000  ....GA$.3a1...@.
 4086d0 00000000 16104000 00000000 08000000  ......@.........
 4086e0 10000000 00010000 47412401 33613100  ........GA$.3a1.
 4086f0 e4214000 00000000 ec214000 00000000  .!@......!@.....
 408700 08000000 10000000 00010000 47412401  ............GA$.
 408710 33613100 50114000 00000000 f6114000  3a1.P.@.......@.
 408720 00000000 08000000 10000000 00010000  ................
 408730 47412401 33613100 e3214000 00000000  GA$.3a1..!@.....
 408740 e3214000 00000000 08000000 10000000  .!@.............
 408750 00010000 47412401 33613100 e3214000  ....GA$.3a1..!@.
 408760 00000000 e3214000 00000000 08000000  .....!@.........
 408770 10000000 00010000 47412401 33613100  ........GA$.3a1.
 408780 16104000 00000000 1b104000 00000000  ..@.......@.....
 408790 08000000 10000000 00010000 47412401  ............GA$.
 4087a0 33613100 ec214000 00000000 f1214000  3a1..!@......!@.
 4087b0 00000000                             ....            

Disassembly of section .init:

0000000000401000 <_init>:
  401000:	f3 0f 1e fa          	endbr64
  401004:	48 83 ec 08          	sub    rsp,0x8
  401008:	48 8b 05 e1 3f 00 00 	mov    rax,QWORD PTR [rip+0x3fe1]        # 404ff0 <__gmon_start__>
  40100f:	48 85 c0             	test   rax,rax
  401012:	74 02                	je     401016 <_init+0x16>
  401014:	ff d0                	call   rax
  401016:	48 83 c4 08          	add    rsp,0x8
  40101a:	c3                   	ret

Disassembly of section .plt:

0000000000401020 <.plt>:
  401020:	ff 35 e2 3f 00 00    	push   QWORD PTR [rip+0x3fe2]        # 405008 <_GLOBAL_OFFSET_TABLE_+0x8>
  401026:	ff 25 e4 3f 00 00    	jmp    QWORD PTR [rip+0x3fe4]        # 405010 <_GLOBAL_OFFSET_TABLE_+0x10>
  40102c:	0f 1f 40 00          	nop    DWORD PTR [rax+0x0]

0000000000401030 <localtime@plt>:
  401030:	ff 25 e2 3f 00 00    	jmp    QWORD PTR [rip+0x3fe2]        # 405018 <localtime@GLIBC_2.2.5>
  401036:	68 00 00 00 00       	push   0x0
  40103b:	e9 e0 ff ff ff       	jmp    401020 <.plt>

0000000000401040 <puts@plt>:
  401040:	ff 25 da 3f 00 00    	jmp    QWORD PTR [rip+0x3fda]        # 405020 <puts@GLIBC_2.2.5>
  401046:	68 01 00 00 00       	push   0x1
  40104b:	e9 d0 ff ff ff       	jmp    401020 <.plt>

0000000000401050 <strlen@plt>:
  401050:	ff 25 d2 3f 00 00    	jmp    QWORD PTR [rip+0x3fd2]        # 405028 <strlen@GLIBC_2.2.5>
  401056:	68 02 00 00 00       	push   0x2
  40105b:	e9 c0 ff ff ff       	jmp    401020 <.plt>

0000000000401060 <strchr@plt>:
  401060:	ff 25 ca 3f 00 00    	jmp    QWORD PTR [rip+0x3fca]        # 405030 <strchr@GLIBC_2.2.5>
  401066:	68 03 00 00 00       	push   0x3
  40106b:	e9 b0 ff ff ff       	jmp    401020 <.plt>

0000000000401070 <printf@plt>:
  401070:	ff 25 c2 3f 00 00    	jmp    QWORD PTR [rip+0x3fc2]        # 405038 <printf@GLIBC_2.2.5>
  401076:	68 04 00 00 00       	push   0x4
  40107b:	e9 a0 ff ff ff       	jmp    401020 <.plt>

0000000000401080 <pclose@plt>:
  401080:	ff 25 ba 3f 00 00    	jmp    QWORD PTR [rip+0x3fba]        # 405040 <pclose@GLIBC_2.2.5>
  401086:	68 05 00 00 00       	push   0x5
  40108b:	e9 90 ff ff ff       	jmp    401020 <.plt>

0000000000401090 <strrchr@plt>:
  401090:	ff 25 b2 3f 00 00    	jmp    QWORD PTR [rip+0x3fb2]        # 405048 <strrchr@GLIBC_2.2.5>
  401096:	68 06 00 00 00       	push   0x6
  40109b:	e9 80 ff ff ff       	jmp    401020 <.plt>

00000000004010a0 <strncat@plt>:
  4010a0:	ff 25 aa 3f 00 00    	jmp    QWORD PTR [rip+0x3faa]        # 405050 <strncat@GLIBC_2.2.5>
  4010a6:	68 07 00 00 00       	push   0x7
  4010ab:	e9 70 ff ff ff       	jmp    401020 <.plt>

00000000004010b0 <fgetc@plt>:
  4010b0:	ff 25 a2 3f 00 00    	jmp    QWORD PTR [rip+0x3fa2]        # 405058 <fgetc@GLIBC_2.2.5>
  4010b6:	68 08 00 00 00       	push   0x8
  4010bb:	e9 60 ff ff ff       	jmp    401020 <.plt>

00000000004010c0 <strcmp@plt>:
  4010c0:	ff 25 9a 3f 00 00    	jmp    QWORD PTR [rip+0x3f9a]        # 405060 <strcmp@GLIBC_2.2.5>
  4010c6:	68 09 00 00 00       	push   0x9
  4010cb:	e9 50 ff ff ff       	jmp    401020 <.plt>

00000000004010d0 <time@plt>:
  4010d0:	ff 25 92 3f 00 00    	jmp    QWORD PTR [rip+0x3f92]        # 405068 <time@GLIBC_2.2.5>
  4010d6:	68 0a 00 00 00       	push   0xa
  4010db:	e9 40 ff ff ff       	jmp    401020 <.plt>

00000000004010e0 <fflush@plt>:
  4010e0:	ff 25 8a 3f 00 00    	jmp    QWORD PTR [rip+0x3f8a]        # 405070 <fflush@GLIBC_2.2.5>
  4010e6:	68 0b 00 00 00       	push   0xb
  4010eb:	e9 30 ff ff ff       	jmp    401020 <.plt>

00000000004010f0 <popen@plt>:
  4010f0:	ff 25 82 3f 00 00    	jmp    QWORD PTR [rip+0x3f82]        # 405078 <popen@GLIBC_2.2.5>
  4010f6:	68 0c 00 00 00       	push   0xc
  4010fb:	e9 20 ff ff ff       	jmp    401020 <.plt>

0000000000401100 <sprintf@plt>:
  401100:	ff 25 7a 3f 00 00    	jmp    QWORD PTR [rip+0x3f7a]        # 405080 <sprintf@GLIBC_2.2.5>
  401106:	68 0d 00 00 00       	push   0xd
  40110b:	e9 10 ff ff ff       	jmp    401020 <.plt>

Disassembly of section .text:

0000000000401110 <_start>:
  401110:	f3 0f 1e fa          	endbr64
  401114:	31 ed                	xor    ebp,ebp
  401116:	49 89 d1             	mov    r9,rdx
  401119:	5e                   	pop    rsi
  40111a:	48 89 e2             	mov    rdx,rsp
  40111d:	48 83 e4 f0          	and    rsp,0xfffffffffffffff0
  401121:	50                   	push   rax
  401122:	54                   	push   rsp
  401123:	45 31 c0             	xor    r8d,r8d
  401126:	31 c9                	xor    ecx,ecx
  401128:	48 c7 c7 2d 1b 40 00 	mov    rdi,0x401b2d
  40112f:	ff 15 ab 3e 00 00    	call   QWORD PTR [rip+0x3eab]        # 404fe0 <__libc_start_main@GLIBC_2.34>
  401135:	f4                   	hlt

0000000000401136 <.annobin_abi_note.c>:
  401136:	66 2e 0f 1f 84 00 00 	cs nop WORD PTR [rax+rax*1+0x0]
  40113d:	00 00 00 

0000000000401140 <_dl_relocate_static_pie>:
  401140:	f3 0f 1e fa          	endbr64
  401144:	c3                   	ret

0000000000401145 <.annobin__dl_relocate_static_pie.end>:
  401145:	66 2e 0f 1f 84 00 00 	cs nop WORD PTR [rax+rax*1+0x0]
  40114c:	00 00 00 
  40114f:	90                   	nop

0000000000401150 <deregister_tm_clones>:
  401150:	48 8d 3d 39 3f 00 00 	lea    rdi,[rip+0x3f39]        # 405090 <__TMC_END__>
  401157:	48 8d 05 32 3f 00 00 	lea    rax,[rip+0x3f32]        # 405090 <__TMC_END__>
  40115e:	48 39 f8             	cmp    rax,rdi
  401161:	74 15                	je     401178 <deregister_tm_clones+0x28>
  401163:	48 8b 05 7e 3e 00 00 	mov    rax,QWORD PTR [rip+0x3e7e]        # 404fe8 <_ITM_deregisterTMCloneTable>
  40116a:	48 85 c0             	test   rax,rax
  40116d:	74 09                	je     401178 <deregister_tm_clones+0x28>
  40116f:	ff e0                	jmp    rax
  401171:	0f 1f 80 00 00 00 00 	nop    DWORD PTR [rax+0x0]
  401178:	c3                   	ret
  401179:	0f 1f 80 00 00 00 00 	nop    DWORD PTR [rax+0x0]

0000000000401180 <register_tm_clones>:
  401180:	48 8d 3d 09 3f 00 00 	lea    rdi,[rip+0x3f09]        # 405090 <__TMC_END__>
  401187:	48 8d 35 02 3f 00 00 	lea    rsi,[rip+0x3f02]        # 405090 <__TMC_END__>
  40118e:	48 29 fe             	sub    rsi,rdi
  401191:	48 89 f0             	mov    rax,rsi
  401194:	48 c1 ee 3f          	shr    rsi,0x3f
  401198:	48 c1 f8 03          	sar    rax,0x3
  40119c:	48 01 c6             	add    rsi,rax
  40119f:	48 d1 fe             	sar    rsi,1
  4011a2:	74 14                	je     4011b8 <register_tm_clones+0x38>
  4011a4:	48 8b 05 4d 3e 00 00 	mov    rax,QWORD PTR [rip+0x3e4d]        # 404ff8 <_ITM_registerTMCloneTable>
  4011ab:	48 85 c0             	test   rax,rax
  4011ae:	74 08                	je     4011b8 <register_tm_clones+0x38>
  4011b0:	ff e0                	jmp    rax
  4011b2:	66 0f 1f 44 00 00    	nop    WORD PTR [rax+rax*1+0x0]
  4011b8:	c3                   	ret
  4011b9:	0f 1f 80 00 00 00 00 	nop    DWORD PTR [rax+0x0]

00000000004011c0 <__do_global_dtors_aux>:
  4011c0:	f3 0f 1e fa          	endbr64
  4011c4:	80 3d c1 3e 00 00 00 	cmp    BYTE PTR [rip+0x3ec1],0x0        # 40508c <completed.0>
  4011cb:	75 13                	jne    4011e0 <__do_global_dtors_aux+0x20>
  4011cd:	55                   	push   rbp
  4011ce:	48 89 e5             	mov    rbp,rsp
  4011d1:	e8 7a ff ff ff       	call   401150 <deregister_tm_clones>
  4011d6:	c6 05 af 3e 00 00 01 	mov    BYTE PTR [rip+0x3eaf],0x1        # 40508c <completed.0>
  4011dd:	5d                   	pop    rbp
  4011de:	c3                   	ret
  4011df:	90                   	nop
  4011e0:	c3                   	ret
  4011e1:	66 66 2e 0f 1f 84 00 	data16 cs nop WORD PTR [rax+rax*1+0x0]
  4011e8:	00 00 00 00 
  4011ec:	0f 1f 40 00          	nop    DWORD PTR [rax+0x0]

00000000004011f0 <frame_dummy>:
  4011f0:	f3 0f 1e fa          	endbr64
  4011f4:	eb 8a                	jmp    401180 <register_tm_clones>

00000000004011f6 <filetostr>:
  4011f6:	55                   	push   rbp
  4011f7:	48 89 e5             	mov    rbp,rsp
  4011fa:	48 83 ec 30          	sub    rsp,0x30
  4011fe:	48 89 7d e8          	mov    QWORD PTR [rbp-0x18],rdi
  401202:	48 89 75 e0          	mov    QWORD PTR [rbp-0x20],rsi
  401206:	89 55 dc             	mov    DWORD PTR [rbp-0x24],edx
  401209:	89 c8                	mov    eax,ecx
  40120b:	88 45 d8             	mov    BYTE PTR [rbp-0x28],al
  40120e:	c7 45 f8 00 00 00 00 	mov    DWORD PTR [rbp-0x8],0x0
  401215:	48 8b 45 e8          	mov    rax,QWORD PTR [rbp-0x18]
  401219:	48 89 c7             	mov    rdi,rax
  40121c:	e8 8f fe ff ff       	call   4010b0 <fgetc@plt>
  401221:	88 45 ff             	mov    BYTE PTR [rbp-0x1],al
  401224:	eb 26                	jmp    40124c <filetostr+0x56>
  401226:	8b 45 f8             	mov    eax,DWORD PTR [rbp-0x8]
  401229:	48 63 d0             	movsxd rdx,eax
  40122c:	48 8b 45 e0          	mov    rax,QWORD PTR [rbp-0x20]
  401230:	48 01 c2             	add    rdx,rax
  401233:	0f b6 45 ff          	movzx  eax,BYTE PTR [rbp-0x1]
  401237:	88 02                	mov    BYTE PTR [rdx],al
  401239:	48 8b 45 e8          	mov    rax,QWORD PTR [rbp-0x18]
  40123d:	48 89 c7             	mov    rdi,rax
  401240:	e8 6b fe ff ff       	call   4010b0 <fgetc@plt>
  401245:	88 45 ff             	mov    BYTE PTR [rbp-0x1],al
  401248:	83 45 f8 01          	add    DWORD PTR [rbp-0x8],0x1
  40124c:	80 7d ff ff          	cmp    BYTE PTR [rbp-0x1],0xff
  401250:	74 08                	je     40125a <filetostr+0x64>
  401252:	8b 45 f8             	mov    eax,DWORD PTR [rbp-0x8]
  401255:	3b 45 dc             	cmp    eax,DWORD PTR [rbp-0x24]
  401258:	7c cc                	jl     401226 <filetostr+0x30>
  40125a:	8b 45 f8             	mov    eax,DWORD PTR [rbp-0x8]
  40125d:	48 63 d0             	movsxd rdx,eax
  401260:	48 8b 45 e0          	mov    rax,QWORD PTR [rbp-0x20]
  401264:	48 01 d0             	add    rax,rdx
  401267:	c6 00 00             	mov    BYTE PTR [rax],0x0
  40126a:	80 7d d8 00          	cmp    BYTE PTR [rbp-0x28],0x0
  40126e:	74 32                	je     4012a2 <filetostr+0xac>
  401270:	48 8b 45 e0          	mov    rax,QWORD PTR [rbp-0x20]
  401274:	48 89 c7             	mov    rdi,rax
  401277:	e8 d4 fd ff ff       	call   401050 <strlen@plt>
  40127c:	83 e8 01             	sub    eax,0x1
  40127f:	89 45 f4             	mov    DWORD PTR [rbp-0xc],eax
  401282:	8b 45 f4             	mov    eax,DWORD PTR [rbp-0xc]
  401285:	48 63 d0             	movsxd rdx,eax
  401288:	48 8b 45 e0          	mov    rax,QWORD PTR [rbp-0x20]
  40128c:	48 01 d0             	add    rax,rdx
  40128f:	c6 00 0a             	mov    BYTE PTR [rax],0xa
  401292:	8b 45 f4             	mov    eax,DWORD PTR [rbp-0xc]
  401295:	48 63 d0             	movsxd rdx,eax
  401298:	48 8b 45 e0          	mov    rax,QWORD PTR [rbp-0x20]
  40129c:	48 01 d0             	add    rax,rdx
  40129f:	c6 00 00             	mov    BYTE PTR [rax],0x0
  4012a2:	90                   	nop
  4012a3:	c9                   	leave
  4012a4:	c3                   	ret

00000000004012a5 <getMaxBashIndex>:
  4012a5:	55                   	push   rbp
  4012a6:	48 89 e5             	mov    rbp,rsp
  4012a9:	48 83 ec 30          	sub    rsp,0x30
  4012ad:	48 89 7d d8          	mov    QWORD PTR [rbp-0x28],rdi
  4012b1:	48 8b 45 d8          	mov    rax,QWORD PTR [rbp-0x28]
  4012b5:	48 89 c7             	mov    rdi,rax
  4012b8:	e8 93 fd ff ff       	call   401050 <strlen@plt>
  4012bd:	89 45 f4             	mov    DWORD PTR [rbp-0xc],eax
  4012c0:	c7 45 fc 00 00 00 00 	mov    DWORD PTR [rbp-0x4],0x0
  4012c7:	c7 45 f8 00 00 00 00 	mov    DWORD PTR [rbp-0x8],0x0
  4012ce:	eb 5d                	jmp    40132d <getMaxBashIndex+0x88>
  4012d0:	8b 45 f8             	mov    eax,DWORD PTR [rbp-0x8]
  4012d3:	48 63 d0             	movsxd rdx,eax
  4012d6:	48 8b 45 d8          	mov    rax,QWORD PTR [rbp-0x28]
  4012da:	48 01 d0             	add    rax,rdx
  4012dd:	0f b6 00             	movzx  eax,BYTE PTR [rax]
  4012e0:	88 45 f3             	mov    BYTE PTR [rbp-0xd],al
  4012e3:	8b 45 f8             	mov    eax,DWORD PTR [rbp-0x8]
  4012e6:	48 98                	cdqe
  4012e8:	48 8d 50 01          	lea    rdx,[rax+0x1]
  4012ec:	48 8b 45 d8          	mov    rax,QWORD PTR [rbp-0x28]
  4012f0:	48 01 d0             	add    rax,rdx
  4012f3:	0f b6 00             	movzx  eax,BYTE PTR [rax]
  4012f6:	88 45 f2             	mov    BYTE PTR [rbp-0xe],al
  4012f9:	80 7d f3 24          	cmp    BYTE PTR [rbp-0xd],0x24
  4012fd:	75 2a                	jne    401329 <getMaxBashIndex+0x84>
  4012ff:	0f be 45 f2          	movsx  eax,BYTE PTR [rbp-0xe]
  401303:	83 e8 30             	sub    eax,0x30
  401306:	89 45 ec             	mov    DWORD PTR [rbp-0x14],eax
  401309:	83 7d ec 00          	cmp    DWORD PTR [rbp-0x14],0x0
  40130d:	7e 14                	jle    401323 <getMaxBashIndex+0x7e>
  40130f:	83 7d ec 09          	cmp    DWORD PTR [rbp-0x14],0x9
  401313:	7f 0e                	jg     401323 <getMaxBashIndex+0x7e>
  401315:	8b 45 ec             	mov    eax,DWORD PTR [rbp-0x14]
  401318:	3b 45 fc             	cmp    eax,DWORD PTR [rbp-0x4]
  40131b:	7e 06                	jle    401323 <getMaxBashIndex+0x7e>
  40131d:	8b 45 ec             	mov    eax,DWORD PTR [rbp-0x14]
  401320:	89 45 fc             	mov    DWORD PTR [rbp-0x4],eax
  401323:	83 45 f8 02          	add    DWORD PTR [rbp-0x8],0x2
  401327:	eb 04                	jmp    40132d <getMaxBashIndex+0x88>
  401329:	83 45 f8 01          	add    DWORD PTR [rbp-0x8],0x1
  40132d:	8b 45 f8             	mov    eax,DWORD PTR [rbp-0x8]
  401330:	3b 45 f4             	cmp    eax,DWORD PTR [rbp-0xc]
  401333:	7c 9b                	jl     4012d0 <getMaxBashIndex+0x2b>
  401335:	8b 45 fc             	mov    eax,DWORD PTR [rbp-0x4]
  401338:	c9                   	leave
  401339:	c3                   	ret

000000000040133a <createBashString>:
  40133a:	55                   	push   rbp
  40133b:	48 89 e5             	mov    rbp,rsp
  40133e:	48 83 ec 40          	sub    rsp,0x40
  401342:	48 89 7d d8          	mov    QWORD PTR [rbp-0x28],rdi
  401346:	89 75 d4             	mov    DWORD PTR [rbp-0x2c],esi
  401349:	48 89 55 c8          	mov    QWORD PTR [rbp-0x38],rdx
  40134d:	48 89 4d c0          	mov    QWORD PTR [rbp-0x40],rcx
  401351:	c7 45 f8 00 00 00 00 	mov    DWORD PTR [rbp-0x8],0x0
  401358:	48 8b 45 c8          	mov    rax,QWORD PTR [rbp-0x38]
  40135c:	48 89 c7             	mov    rdi,rax
  40135f:	e8 ec fc ff ff       	call   401050 <strlen@plt>
  401364:	89 45 f4             	mov    DWORD PTR [rbp-0xc],eax
  401367:	c7 45 fc 00 00 00 00 	mov    DWORD PTR [rbp-0x4],0x0
  40136e:	48 8b 45 d8          	mov    rax,QWORD PTR [rbp-0x28]
  401372:	c6 00 00             	mov    BYTE PTR [rax],0x0
  401375:	e9 fa 00 00 00       	jmp    401474 <createBashString+0x13a>
  40137a:	8b 45 f8             	mov    eax,DWORD PTR [rbp-0x8]
  40137d:	48 63 d0             	movsxd rdx,eax
  401380:	48 8b 45 c8          	mov    rax,QWORD PTR [rbp-0x38]
  401384:	48 01 d0             	add    rax,rdx
  401387:	0f b6 00             	movzx  eax,BYTE PTR [rax]
  40138a:	88 45 eb             	mov    BYTE PTR [rbp-0x15],al
  40138d:	8b 45 f8             	mov    eax,DWORD PTR [rbp-0x8]
  401390:	48 98                	cdqe
  401392:	48 8d 50 01          	lea    rdx,[rax+0x1]
  401396:	48 8b 45 c8          	mov    rax,QWORD PTR [rbp-0x38]
  40139a:	48 01 d0             	add    rax,rdx
  40139d:	0f b6 00             	movzx  eax,BYTE PTR [rax]
  4013a0:	88 45 f3             	mov    BYTE PTR [rbp-0xd],al
  4013a3:	0f be 45 f3          	movsx  eax,BYTE PTR [rbp-0xd]
  4013a7:	83 e8 30             	sub    eax,0x30
  4013aa:	89 45 ec             	mov    DWORD PTR [rbp-0x14],eax
  4013ad:	0f b6 45 eb          	movzx  eax,BYTE PTR [rbp-0x15]
  4013b1:	3c 24                	cmp    al,0x24
  4013b3:	75 2d                	jne    4013e2 <createBashString+0xa8>
  4013b5:	80 7d f3 24          	cmp    BYTE PTR [rbp-0xd],0x24
  4013b9:	75 27                	jne    4013e2 <createBashString+0xa8>
  4013bb:	8b 45 d4             	mov    eax,DWORD PTR [rbp-0x2c]
  4013be:	83 e8 01             	sub    eax,0x1
  4013c1:	48 63 d0             	movsxd rdx,eax
  4013c4:	48 8b 45 d8          	mov    rax,QWORD PTR [rbp-0x28]
  4013c8:	be 10 30 40 00       	mov    esi,0x403010
  4013cd:	48 89 c7             	mov    rdi,rax
  4013d0:	e8 cb fc ff ff       	call   4010a0 <strncat@plt>
  4013d5:	83 45 fc 01          	add    DWORD PTR [rbp-0x4],0x1
  4013d9:	83 45 f8 02          	add    DWORD PTR [rbp-0x8],0x2
  4013dd:	e9 92 00 00 00       	jmp    401474 <createBashString+0x13a>
  4013e2:	0f b6 45 eb          	movzx  eax,BYTE PTR [rbp-0x15]
  4013e6:	3c 24                	cmp    al,0x24
  4013e8:	75 6a                	jne    401454 <createBashString+0x11a>
  4013ea:	83 7d ec 00          	cmp    DWORD PTR [rbp-0x14],0x0
  4013ee:	7e 64                	jle    401454 <createBashString+0x11a>
  4013f0:	83 7d ec 09          	cmp    DWORD PTR [rbp-0x14],0x9
  4013f4:	7f 5e                	jg     401454 <createBashString+0x11a>
  4013f6:	8b 45 d4             	mov    eax,DWORD PTR [rbp-0x2c]
  4013f9:	2b 45 fc             	sub    eax,DWORD PTR [rbp-0x4]
  4013fc:	48 63 d0             	movsxd rdx,eax
  4013ff:	8b 45 ec             	mov    eax,DWORD PTR [rbp-0x14]
  401402:	48 98                	cdqe
  401404:	48 8d 0c c5 00 00 00 	lea    rcx,[rax*8+0x0]
  40140b:	00 
  40140c:	48 8b 45 c0          	mov    rax,QWORD PTR [rbp-0x40]
  401410:	48 01 c8             	add    rax,rcx
  401413:	48 8b 08             	mov    rcx,QWORD PTR [rax]
  401416:	48 8b 45 d8          	mov    rax,QWORD PTR [rbp-0x28]
  40141a:	48 89 ce             	mov    rsi,rcx
  40141d:	48 89 c7             	mov    rdi,rax
  401420:	e8 7b fc ff ff       	call   4010a0 <strncat@plt>
  401425:	8b 45 ec             	mov    eax,DWORD PTR [rbp-0x14]
  401428:	48 98                	cdqe
  40142a:	48 8d 14 c5 00 00 00 	lea    rdx,[rax*8+0x0]
  401431:	00 
  401432:	48 8b 45 c0          	mov    rax,QWORD PTR [rbp-0x40]
  401436:	48 01 d0             	add    rax,rdx
  401439:	48 8b 00             	mov    rax,QWORD PTR [rax]
  40143c:	48 89 c7             	mov    rdi,rax
  40143f:	e8 0c fc ff ff       	call   401050 <strlen@plt>
  401444:	89 c2                	mov    edx,eax
  401446:	8b 45 fc             	mov    eax,DWORD PTR [rbp-0x4]
  401449:	01 d0                	add    eax,edx
  40144b:	89 45 fc             	mov    DWORD PTR [rbp-0x4],eax
  40144e:	83 45 f8 02          	add    DWORD PTR [rbp-0x8],0x2
  401452:	eb 20                	jmp    401474 <createBashString+0x13a>
  401454:	48 8d 4d eb          	lea    rcx,[rbp-0x15]
  401458:	48 8b 45 d8          	mov    rax,QWORD PTR [rbp-0x28]
  40145c:	ba 01 00 00 00       	mov    edx,0x1
  401461:	48 89 ce             	mov    rsi,rcx
  401464:	48 89 c7             	mov    rdi,rax
  401467:	e8 34 fc ff ff       	call   4010a0 <strncat@plt>
  40146c:	83 45 fc 01          	add    DWORD PTR [rbp-0x4],0x1
  401470:	83 45 f8 01          	add    DWORD PTR [rbp-0x8],0x1
  401474:	8b 45 f8             	mov    eax,DWORD PTR [rbp-0x8]
  401477:	3b 45 f4             	cmp    eax,DWORD PTR [rbp-0xc]
  40147a:	7d 0c                	jge    401488 <createBashString+0x14e>
  40147c:	8b 45 fc             	mov    eax,DWORD PTR [rbp-0x4]
  40147f:	3b 45 d4             	cmp    eax,DWORD PTR [rbp-0x2c]
  401482:	0f 8c f2 fe ff ff    	jl     40137a <createBashString+0x40>
  401488:	8b 45 fc             	mov    eax,DWORD PTR [rbp-0x4]
  40148b:	3b 45 d4             	cmp    eax,DWORD PTR [rbp-0x2c]
  40148e:	0f 9e c0             	setle  al
  401491:	c9                   	leave
  401492:	c3                   	ret

0000000000401493 <run>:
  401493:	55                   	push   rbp
  401494:	48 89 e5             	mov    rbp,rsp
  401497:	41 57                	push   r15
  401499:	41 56                	push   r14
  40149b:	41 55                	push   r13
  40149d:	41 54                	push   r12
  40149f:	53                   	push   rbx
  4014a0:	48 81 ec a8 01 00 00 	sub    rsp,0x1a8
  4014a7:	48 89 bd 58 fe ff ff 	mov    QWORD PTR [rbp-0x1a8],rdi
  4014ae:	89 b5 54 fe ff ff    	mov    DWORD PTR [rbp-0x1ac],esi
  4014b4:	48 89 95 48 fe ff ff 	mov    QWORD PTR [rbp-0x1b8],rdx
  4014bb:	48 89 8d 38 ff ff ff 	mov    QWORD PTR [rbp-0xc8],rcx
  4014c2:	4c 89 85 40 ff ff ff 	mov    QWORD PTR [rbp-0xc0],r8
  4014c9:	4c 89 8d 48 ff ff ff 	mov    QWORD PTR [rbp-0xb8],r9
  4014d0:	84 c0                	test   al,al
  4014d2:	74 29                	je     4014fd <run+0x6a>
  4014d4:	0f 29 85 50 ff ff ff 	movaps XMMWORD PTR [rbp-0xb0],xmm0
  4014db:	0f 29 8d 60 ff ff ff 	movaps XMMWORD PTR [rbp-0xa0],xmm1
  4014e2:	0f 29 95 70 ff ff ff 	movaps XMMWORD PTR [rbp-0x90],xmm2
  4014e9:	0f 29 5d 80          	movaps XMMWORD PTR [rbp-0x80],xmm3
  4014ed:	0f 29 65 90          	movaps XMMWORD PTR [rbp-0x70],xmm4
  4014f1:	0f 29 6d a0          	movaps XMMWORD PTR [rbp-0x60],xmm5
  4014f5:	0f 29 75 b0          	movaps XMMWORD PTR [rbp-0x50],xmm6
  4014f9:	0f 29 7d c0          	movaps XMMWORD PTR [rbp-0x40],xmm7
  4014fd:	48 89 e0             	mov    rax,rsp
  401500:	48 89 c3             	mov    rbx,rax
  401503:	c7 85 14 ff ff ff f4 	mov    DWORD PTR [rbp-0xec],0x1f4
  40150a:	01 00 00 
  40150d:	c7 85 10 ff ff ff 0a 	mov    DWORD PTR [rbp-0xf0],0xa
  401514:	00 00 00 
  401517:	8b 85 14 ff ff ff    	mov    eax,DWORD PTR [rbp-0xec]
  40151d:	48 98                	cdqe
  40151f:	48 83 e8 01          	sub    rax,0x1
  401523:	48 89 85 08 ff ff ff 	mov    QWORD PTR [rbp-0xf8],rax
  40152a:	8b 85 14 ff ff ff    	mov    eax,DWORD PTR [rbp-0xec]
  401530:	48 98                	cdqe
  401532:	48 89 85 30 fe ff ff 	mov    QWORD PTR [rbp-0x1d0],rax
  401539:	48 c7 85 38 fe ff ff 	mov    QWORD PTR [rbp-0x1c8],0x0
  401540:	00 00 00 00 
  401544:	8b 85 14 ff ff ff    	mov    eax,DWORD PTR [rbp-0xec]
  40154a:	48 98                	cdqe
  40154c:	49 89 c6             	mov    r14,rax
  40154f:	41 bf 00 00 00 00    	mov    r15d,0x0
  401555:	8b 85 14 ff ff ff    	mov    eax,DWORD PTR [rbp-0xec]
  40155b:	48 98                	cdqe
  40155d:	ba 10 00 00 00       	mov    edx,0x10
  401562:	48 83 ea 01          	sub    rdx,0x1
  401566:	48 01 d0             	add    rax,rdx
  401569:	b9 10 00 00 00       	mov    ecx,0x10
  40156e:	ba 00 00 00 00       	mov    edx,0x0
  401573:	48 f7 f1             	div    rcx
  401576:	48 6b c0 10          	imul   rax,rax,0x10
  40157a:	48 29 c4             	sub    rsp,rax
  40157d:	48 89 e0             	mov    rax,rsp
  401580:	48 83 c0 00          	add    rax,0x0
  401584:	48 89 85 00 ff ff ff 	mov    QWORD PTR [rbp-0x100],rax
  40158b:	8b 85 10 ff ff ff    	mov    eax,DWORD PTR [rbp-0xf0]
  401591:	48 98                	cdqe
  401593:	48 83 e8 01          	sub    rax,0x1
  401597:	48 89 85 f8 fe ff ff 	mov    QWORD PTR [rbp-0x108],rax
  40159e:	8b 85 10 ff ff ff    	mov    eax,DWORD PTR [rbp-0xf0]
  4015a4:	48 98                	cdqe
  4015a6:	49 89 c4             	mov    r12,rax
  4015a9:	41 bd 00 00 00 00    	mov    r13d,0x0
  4015af:	8b 85 10 ff ff ff    	mov    eax,DWORD PTR [rbp-0xf0]
  4015b5:	48 98                	cdqe
  4015b7:	49 89 c2             	mov    r10,rax
  4015ba:	41 bb 00 00 00 00    	mov    r11d,0x0
  4015c0:	8b 85 10 ff ff ff    	mov    eax,DWORD PTR [rbp-0xf0]
  4015c6:	48 98                	cdqe
  4015c8:	ba 10 00 00 00       	mov    edx,0x10
  4015cd:	48 83 ea 01          	sub    rdx,0x1
  4015d1:	48 01 d0             	add    rax,rdx
  4015d4:	b9 10 00 00 00       	mov    ecx,0x10
  4015d9:	ba 00 00 00 00       	mov    edx,0x0
  4015de:	48 f7 f1             	div    rcx
  4015e1:	48 6b c0 10          	imul   rax,rax,0x10
  4015e5:	48 29 c4             	sub    rsp,rax
  4015e8:	48 89 e0             	mov    rax,rsp
  4015eb:	48 83 c0 00          	add    rax,0x0
  4015ef:	48 89 85 f0 fe ff ff 	mov    QWORD PTR [rbp-0x110],rax
  4015f6:	48 8b 85 48 fe ff ff 	mov    rax,QWORD PTR [rbp-0x1b8]
  4015fd:	48 89 c7             	mov    rdi,rax
  401600:	e8 a0 fc ff ff       	call   4012a5 <getMaxBashIndex>
  401605:	89 85 ec fe ff ff    	mov    DWORD PTR [rbp-0x114],eax
  40160b:	c7 85 68 fe ff ff 18 	mov    DWORD PTR [rbp-0x198],0x18
  401612:	00 00 00 
  401615:	c7 85 6c fe ff ff 30 	mov    DWORD PTR [rbp-0x194],0x30
  40161c:	00 00 00 
  40161f:	48 8d 45 10          	lea    rax,[rbp+0x10]
  401623:	48 89 85 70 fe ff ff 	mov    QWORD PTR [rbp-0x190],rax
  40162a:	48 8d 85 20 ff ff ff 	lea    rax,[rbp-0xe0]
  401631:	48 89 85 78 fe ff ff 	mov    QWORD PTR [rbp-0x188],rax
  401638:	c7 85 1c ff ff ff 01 	mov    DWORD PTR [rbp-0xe4],0x1
  40163f:	00 00 00 
  401642:	eb 5a                	jmp    40169e <run+0x20b>
  401644:	8b 85 68 fe ff ff    	mov    eax,DWORD PTR [rbp-0x198]
  40164a:	83 f8 2f             	cmp    eax,0x2f
  40164d:	77 23                	ja     401672 <run+0x1df>
  40164f:	48 8b 85 78 fe ff ff 	mov    rax,QWORD PTR [rbp-0x188]
  401656:	8b 95 68 fe ff ff    	mov    edx,DWORD PTR [rbp-0x198]
  40165c:	89 d2                	mov    edx,edx
  40165e:	48 01 d0             	add    rax,rdx
  401661:	8b 95 68 fe ff ff    	mov    edx,DWORD PTR [rbp-0x198]
  401667:	83 c2 08             	add    edx,0x8
  40166a:	89 95 68 fe ff ff    	mov    DWORD PTR [rbp-0x198],edx
  401670:	eb 12                	jmp    401684 <run+0x1f1>
  401672:	48 8b 85 70 fe ff ff 	mov    rax,QWORD PTR [rbp-0x190]
  401679:	48 8d 50 08          	lea    rdx,[rax+0x8]
  40167d:	48 89 95 70 fe ff ff 	mov    QWORD PTR [rbp-0x190],rdx
  401684:	48 8b 10             	mov    rdx,QWORD PTR [rax]
  401687:	8b 85 1c ff ff ff    	mov    eax,DWORD PTR [rbp-0xe4]
  40168d:	48 98                	cdqe
  40168f:	48 89 94 c5 80 fe ff 	mov    QWORD PTR [rbp+rax*8-0x180],rdx
  401696:	ff 
  401697:	83 85 1c ff ff ff 01 	add    DWORD PTR [rbp-0xe4],0x1
  40169e:	8b 85 1c ff ff ff    	mov    eax,DWORD PTR [rbp-0xe4]
  4016a4:	3b 85 ec fe ff ff    	cmp    eax,DWORD PTR [rbp-0x114]
  4016aa:	7e 98                	jle    401644 <run+0x1b1>
  4016ac:	8b 85 14 ff ff ff    	mov    eax,DWORD PTR [rbp-0xec]
  4016b2:	8d 70 fb             	lea    esi,[rax-0x5]
  4016b5:	48 8d 8d 80 fe ff ff 	lea    rcx,[rbp-0x180]
  4016bc:	48 8b 95 48 fe ff ff 	mov    rdx,QWORD PTR [rbp-0x1b8]
  4016c3:	48 8b 85 00 ff ff ff 	mov    rax,QWORD PTR [rbp-0x100]
  4016ca:	48 89 c7             	mov    rdi,rax
  4016cd:	e8 68 fc ff ff       	call   40133a <createBashString>
  4016d2:	88 85 eb fe ff ff    	mov    BYTE PTR [rbp-0x115],al
  4016d8:	0f b6 85 eb fe ff ff 	movzx  eax,BYTE PTR [rbp-0x115]
  4016df:	83 f0 01             	xor    eax,0x1
  4016e2:	84 c0                	test   al,al
  4016e4:	74 0a                	je     4016f0 <run+0x25d>
  4016e6:	b8 fd ff ff ff       	mov    eax,0xfffffffd
  4016eb:	e9 28 01 00 00       	jmp    401818 <run+0x385>
  4016f0:	48 8b 85 00 ff ff ff 	mov    rax,QWORD PTR [rbp-0x100]
  4016f7:	48 89 c7             	mov    rdi,rax
  4016fa:	e8 51 f9 ff ff       	call   401050 <strlen@plt>
  4016ff:	48 89 c2             	mov    rdx,rax
  401702:	48 8b 85 00 ff ff ff 	mov    rax,QWORD PTR [rbp-0x100]
  401709:	48 01 d0             	add    rax,rdx
  40170c:	c7 00 20 32 3e 26    	mov    DWORD PTR [rax],0x263e3220
  401712:	66 c7 40 04 31 00    	mov    WORD PTR [rax+0x4],0x31
  401718:	48 8b 85 00 ff ff ff 	mov    rax,QWORD PTR [rbp-0x100]
  40171f:	be 12 30 40 00       	mov    esi,0x403012
  401724:	48 89 c7             	mov    rdi,rax
  401727:	e8 c4 f9 ff ff       	call   4010f0 <popen@plt>
  40172c:	48 89 85 e0 fe ff ff 	mov    QWORD PTR [rbp-0x120],rax
  401733:	48 83 bd e0 fe ff ff 	cmp    QWORD PTR [rbp-0x120],0x0
  40173a:	00 
  40173b:	75 0a                	jne    401747 <run+0x2b4>
  40173d:	b8 ff ff ff ff       	mov    eax,0xffffffff
  401742:	e9 d1 00 00 00       	jmp    401818 <run+0x385>
  401747:	48 83 bd 58 fe ff ff 	cmp    QWORD PTR [rbp-0x1a8],0x0
  40174e:	00 
  40174f:	75 38                	jne    401789 <run+0x2f6>
  401751:	8b 95 10 ff ff ff    	mov    edx,DWORD PTR [rbp-0xf0]
  401757:	48 8b b5 f0 fe ff ff 	mov    rsi,QWORD PTR [rbp-0x110]
  40175e:	48 8b 85 e0 fe ff ff 	mov    rax,QWORD PTR [rbp-0x120]
  401765:	b9 01 00 00 00       	mov    ecx,0x1
  40176a:	48 89 c7             	mov    rdi,rax
  40176d:	e8 84 fa ff ff       	call   4011f6 <filetostr>
  401772:	48 8b 85 f0 fe ff ff 	mov    rax,QWORD PTR [rbp-0x110]
  401779:	48 89 c7             	mov    rdi,rax
  40177c:	e8 cf f8 ff ff       	call   401050 <strlen@plt>
  401781:	89 85 18 ff ff ff    	mov    DWORD PTR [rbp-0xe8],eax
  401787:	eb 36                	jmp    4017bf <run+0x32c>
  401789:	8b 95 54 fe ff ff    	mov    edx,DWORD PTR [rbp-0x1ac]
  40178f:	48 8b b5 58 fe ff ff 	mov    rsi,QWORD PTR [rbp-0x1a8]
  401796:	48 8b 85 e0 fe ff ff 	mov    rax,QWORD PTR [rbp-0x120]
  40179d:	b9 01 00 00 00       	mov    ecx,0x1
  4017a2:	48 89 c7             	mov    rdi,rax
  4017a5:	e8 4c fa ff ff       	call   4011f6 <filetostr>
  4017aa:	48 8b 85 58 fe ff ff 	mov    rax,QWORD PTR [rbp-0x1a8]
  4017b1:	48 89 c7             	mov    rdi,rax
  4017b4:	e8 97 f8 ff ff       	call   401050 <strlen@plt>
  4017b9:	89 85 18 ff ff ff    	mov    DWORD PTR [rbp-0xe8],eax
  4017bf:	48 8b 85 e0 fe ff ff 	mov    rax,QWORD PTR [rbp-0x120]
  4017c6:	48 89 c7             	mov    rdi,rax
  4017c9:	e8 12 f9 ff ff       	call   4010e0 <fflush@plt>
  4017ce:	48 8b 85 e0 fe ff ff 	mov    rax,QWORD PTR [rbp-0x120]
  4017d5:	48 89 c7             	mov    rdi,rax
  4017d8:	e8 a3 f8 ff ff       	call   401080 <pclose@plt>
  4017dd:	89 85 dc fe ff ff    	mov    DWORD PTR [rbp-0x124],eax
  4017e3:	83 bd dc fe ff ff 00 	cmp    DWORD PTR [rbp-0x124],0x0
  4017ea:	75 17                	jne    401803 <run+0x370>
  4017ec:	83 bd 18 ff ff ff 00 	cmp    DWORD PTR [rbp-0xe8],0x0
  4017f3:	75 07                	jne    4017fc <run+0x369>
  4017f5:	b8 01 00 00 00       	mov    eax,0x1
  4017fa:	eb 1c                	jmp    401818 <run+0x385>
  4017fc:	b8 02 00 00 00       	mov    eax,0x2
  401801:	eb 15                	jmp    401818 <run+0x385>
  401803:	83 bd 18 ff ff ff 00 	cmp    DWORD PTR [rbp-0xe8],0x0
  40180a:	75 07                	jne    401813 <run+0x380>
  40180c:	b8 ff ff ff ff       	mov    eax,0xffffffff
  401811:	eb 05                	jmp    401818 <run+0x385>
  401813:	b8 fe ff ff ff       	mov    eax,0xfffffffe
  401818:	48 89 dc             	mov    rsp,rbx
  40181b:	48 8d 65 d8          	lea    rsp,[rbp-0x28]
  40181f:	5b                   	pop    rbx
  401820:	41 5c                	pop    r12
  401822:	41 5d                	pop    r13
  401824:	41 5e                	pop    r14
  401826:	41 5f                	pop    r15
  401828:	5d                   	pop    rbp
  401829:	c3                   	ret

000000000040182a <obfuscate>:
  40182a:	55                   	push   rbp
  40182b:	48 89 e5             	mov    rbp,rsp
  40182e:	48 83 ec 30          	sub    rsp,0x30
  401832:	48 89 7d d8          	mov    QWORD PTR [rbp-0x28],rdi
  401836:	89 75 d4             	mov    DWORD PTR [rbp-0x2c],esi
  401839:	8b 45 d4             	mov    eax,DWORD PTR [rbp-0x2c]
  40183c:	48 98                	cdqe
  40183e:	48 89 45 f0          	mov    QWORD PTR [rbp-0x10],rax
  401842:	48 8b 45 d8          	mov    rax,QWORD PTR [rbp-0x28]
  401846:	48 89 c7             	mov    rdi,rax
  401849:	e8 02 f8 ff ff       	call   401050 <strlen@plt>
  40184e:	83 c0 01             	add    eax,0x1
  401851:	89 45 ec             	mov    DWORD PTR [rbp-0x14],eax
  401854:	c7 45 fc 00 00 00 00 	mov    DWORD PTR [rbp-0x4],0x0
  40185b:	e9 81 00 00 00       	jmp    4018e1 <obfuscate+0xb7>
  401860:	48 8b 55 f0          	mov    rdx,QWORD PTR [rbp-0x10]
  401864:	48 89 d0             	mov    rax,rdx
  401867:	48 01 c0             	add    rax,rax
  40186a:	48 01 d0             	add    rax,rdx
  40186d:	48 c1 e0 04          	shl    rax,0x4
  401871:	48 29 d0             	sub    rax,rdx
  401874:	48 8d 48 0b          	lea    rcx,[rax+0xb]
  401878:	48 ba 01 80 00 80 00 	movabs rdx,0x8000800080008001
  40187f:	80 00 80 
  401882:	48 89 c8             	mov    rax,rcx
  401885:	48 f7 ea             	imul   rdx
  401888:	48 8d 04 0a          	lea    rax,[rdx+rcx*1]
  40188c:	48 c1 f8 0f          	sar    rax,0xf
  401890:	48 89 ca             	mov    rdx,rcx
  401893:	48 c1 fa 3f          	sar    rdx,0x3f
  401897:	48 29 d0             	sub    rax,rdx
  40189a:	48 89 45 f0          	mov    QWORD PTR [rbp-0x10],rax
  40189e:	48 8b 55 f0          	mov    rdx,QWORD PTR [rbp-0x10]
  4018a2:	48 89 d0             	mov    rax,rdx
  4018a5:	48 c1 e0 10          	shl    rax,0x10
  4018a9:	48 29 d0             	sub    rax,rdx
  4018ac:	48 29 c1             	sub    rcx,rax
  4018af:	48 89 ca             	mov    rdx,rcx
  4018b2:	48 89 55 f0          	mov    QWORD PTR [rbp-0x10],rdx
  4018b6:	8b 45 fc             	mov    eax,DWORD PTR [rbp-0x4]
  4018b9:	48 63 d0             	movsxd rdx,eax
  4018bc:	48 8b 45 d8          	mov    rax,QWORD PTR [rbp-0x28]
  4018c0:	48 01 d0             	add    rax,rdx
  4018c3:	0f b6 10             	movzx  edx,BYTE PTR [rax]
  4018c6:	48 8b 45 f0          	mov    rax,QWORD PTR [rbp-0x10]
  4018ca:	89 c6                	mov    esi,eax
  4018cc:	8b 45 fc             	mov    eax,DWORD PTR [rbp-0x4]
  4018cf:	48 63 c8             	movsxd rcx,eax
  4018d2:	48 8b 45 d8          	mov    rax,QWORD PTR [rbp-0x28]
  4018d6:	48 01 c8             	add    rax,rcx
  4018d9:	31 f2                	xor    edx,esi
  4018db:	88 10                	mov    BYTE PTR [rax],dl
  4018dd:	83 45 fc 01          	add    DWORD PTR [rbp-0x4],0x1
  4018e1:	8b 45 fc             	mov    eax,DWORD PTR [rbp-0x4]
  4018e4:	3b 45 ec             	cmp    eax,DWORD PTR [rbp-0x14]
  4018e7:	0f 8c 73 ff ff ff    	jl     401860 <obfuscate+0x36>
  4018ed:	90                   	nop
  4018ee:	90                   	nop
  4018ef:	c9                   	leave
  4018f0:	c3                   	ret

00000000004018f1 <deobfuscate>:
  4018f1:	55                   	push   rbp
  4018f2:	48 89 e5             	mov    rbp,rsp
  4018f5:	48 89 7d d8          	mov    QWORD PTR [rbp-0x28],rdi
  4018f9:	89 75 d4             	mov    DWORD PTR [rbp-0x2c],esi
  4018fc:	8b 45 d4             	mov    eax,DWORD PTR [rbp-0x2c]
  4018ff:	48 98                	cdqe
  401901:	48 89 45 f0          	mov    QWORD PTR [rbp-0x10],rax
  401905:	c6 45 ef 00          	mov    BYTE PTR [rbp-0x11],0x0
  401909:	c7 45 fc 00 00 00 00 	mov    DWORD PTR [rbp-0x4],0x0
  401910:	e9 99 00 00 00       	jmp    4019ae <deobfuscate+0xbd>
  401915:	48 8b 55 f0          	mov    rdx,QWORD PTR [rbp-0x10]
  401919:	48 89 d0             	mov    rax,rdx
  40191c:	48 01 c0             	add    rax,rax
  40191f:	48 01 d0             	add    rax,rdx
  401922:	48 c1 e0 04          	shl    rax,0x4
  401926:	48 29 d0             	sub    rax,rdx
  401929:	48 8d 48 0b          	lea    rcx,[rax+0xb]
  40192d:	48 ba 01 80 00 80 00 	movabs rdx,0x8000800080008001
  401934:	80 00 80 
  401937:	48 89 c8             	mov    rax,rcx
  40193a:	48 f7 ea             	imul   rdx
  40193d:	48 8d 04 0a          	lea    rax,[rdx+rcx*1]
  401941:	48 c1 f8 0f          	sar    rax,0xf
  401945:	48 89 ca             	mov    rdx,rcx
  401948:	48 c1 fa 3f          	sar    rdx,0x3f
  40194c:	48 29 d0             	sub    rax,rdx
  40194f:	48 89 45 f0          	mov    QWORD PTR [rbp-0x10],rax
  401953:	48 8b 55 f0          	mov    rdx,QWORD PTR [rbp-0x10]
  401957:	48 89 d0             	mov    rax,rdx
  40195a:	48 c1 e0 10          	shl    rax,0x10
  40195e:	48 29 d0             	sub    rax,rdx
  401961:	48 29 c1             	sub    rcx,rax
  401964:	48 89 ca             	mov    rdx,rcx
  401967:	48 89 55 f0          	mov    QWORD PTR [rbp-0x10],rdx
  40196b:	8b 45 fc             	mov    eax,DWORD PTR [rbp-0x4]
  40196e:	48 63 d0             	movsxd rdx,eax
  401971:	48 8b 45 d8          	mov    rax,QWORD PTR [rbp-0x28]
  401975:	48 01 d0             	add    rax,rdx
  401978:	0f b6 10             	movzx  edx,BYTE PTR [rax]
  40197b:	48 8b 45 f0          	mov    rax,QWORD PTR [rbp-0x10]
  40197f:	89 c6                	mov    esi,eax
  401981:	8b 45 fc             	mov    eax,DWORD PTR [rbp-0x4]
  401984:	48 63 c8             	movsxd rcx,eax
  401987:	48 8b 45 d8          	mov    rax,QWORD PTR [rbp-0x28]
  40198b:	48 01 c8             	add    rax,rcx
  40198e:	31 f2                	xor    edx,esi
  401990:	88 10                	mov    BYTE PTR [rax],dl
  401992:	8b 45 fc             	mov    eax,DWORD PTR [rbp-0x4]
  401995:	48 63 d0             	movsxd rdx,eax
  401998:	48 8b 45 d8          	mov    rax,QWORD PTR [rbp-0x28]
  40199c:	48 01 d0             	add    rax,rdx
  40199f:	0f b6 00             	movzx  eax,BYTE PTR [rax]
  4019a2:	84 c0                	test   al,al
  4019a4:	0f 94 c0             	sete   al
  4019a7:	88 45 ef             	mov    BYTE PTR [rbp-0x11],al
  4019aa:	83 45 fc 01          	add    DWORD PTR [rbp-0x4],0x1
  4019ae:	0f b6 45 ef          	movzx  eax,BYTE PTR [rbp-0x11]
  4019b2:	83 f0 01             	xor    eax,0x1
  4019b5:	84 c0                	test   al,al
  4019b7:	74 0d                	je     4019c6 <deobfuscate+0xd5>
  4019b9:	81 7d fc ff 00 00 00 	cmp    DWORD PTR [rbp-0x4],0xff
  4019c0:	0f 8e 4f ff ff ff    	jle    401915 <deobfuscate+0x24>
  4019c6:	90                   	nop
  4019c7:	5d                   	pop    rbp
  4019c8:	c3                   	ret

00000000004019c9 <strend>:
  4019c9:	55                   	push   rbp
  4019ca:	48 89 e5             	mov    rbp,rsp
  4019cd:	48 83 ec 20          	sub    rsp,0x20
  4019d1:	48 89 7d e8          	mov    QWORD PTR [rbp-0x18],rdi
  4019d5:	48 89 75 e0          	mov    QWORD PTR [rbp-0x20],rsi
  4019d9:	48 8b 45 e0          	mov    rax,QWORD PTR [rbp-0x20]
  4019dd:	0f b6 00             	movzx  eax,BYTE PTR [rax]
  4019e0:	0f be d0             	movsx  edx,al
  4019e3:	48 8b 45 e8          	mov    rax,QWORD PTR [rbp-0x18]
  4019e7:	89 d6                	mov    esi,edx
  4019e9:	48 89 c7             	mov    rdi,rax
  4019ec:	e8 9f f6 ff ff       	call   401090 <strrchr@plt>
  4019f1:	48 89 45 f8          	mov    QWORD PTR [rbp-0x8],rax
  4019f5:	48 83 7d f8 00       	cmp    QWORD PTR [rbp-0x8],0x0
  4019fa:	74 1a                	je     401a16 <strend+0x4d>
  4019fc:	48 8b 55 e0          	mov    rdx,QWORD PTR [rbp-0x20]
  401a00:	48 8b 45 f8          	mov    rax,QWORD PTR [rbp-0x8]
  401a04:	48 89 d6             	mov    rsi,rdx
  401a07:	48 89 c7             	mov    rdi,rax
  401a0a:	e8 b1 f6 ff ff       	call   4010c0 <strcmp@plt>
  401a0f:	85 c0                	test   eax,eax
  401a11:	0f 94 c0             	sete   al
  401a14:	eb 05                	jmp    401a1b <strend+0x52>
  401a16:	b8 00 00 00 00       	mov    eax,0x0
  401a1b:	c9                   	leave
  401a1c:	c3                   	ret

0000000000401a1d <validFilename>:
  401a1d:	55                   	push   rbp
  401a1e:	48 89 e5             	mov    rbp,rsp
  401a21:	48 83 ec 60          	sub    rsp,0x60
  401a25:	48 89 7d a8          	mov    QWORD PTR [rbp-0x58],rdi
  401a29:	48 b8 41 42 43 44 45 	movabs rax,0x4847464544434241
  401a30:	46 47 48 
  401a33:	48 ba 49 4a 4b 4c 4d 	movabs rdx,0x504f4e4d4c4b4a49
  401a3a:	4e 4f 50 
  401a3d:	48 89 45 b0          	mov    QWORD PTR [rbp-0x50],rax
  401a41:	48 89 55 b8          	mov    QWORD PTR [rbp-0x48],rdx
  401a45:	48 b8 51 52 53 54 55 	movabs rax,0x5857565554535251
  401a4c:	56 57 58 
  401a4f:	48 ba 59 5a 61 62 63 	movabs rdx,0x6665646362615a59
  401a56:	64 65 66 
  401a59:	48 89 45 c0          	mov    QWORD PTR [rbp-0x40],rax
  401a5d:	48 89 55 c8          	mov    QWORD PTR [rbp-0x38],rdx
  401a61:	48 b8 67 68 69 6a 6b 	movabs rax,0x6e6d6c6b6a696867
  401a68:	6c 6d 6e 
  401a6b:	48 ba 6f 70 71 72 73 	movabs rdx,0x767574737271706f
  401a72:	74 75 76 
  401a75:	48 89 45 d0          	mov    QWORD PTR [rbp-0x30],rax
  401a79:	48 89 55 d8          	mov    QWORD PTR [rbp-0x28],rdx
  401a7d:	48 b8 77 78 79 7a 31 	movabs rax,0x343332317a797877
  401a84:	32 33 34 
  401a87:	48 ba 35 36 37 38 39 	movabs rdx,0x2e303938373635
  401a8e:	30 2e 00 
  401a91:	48 89 45 e0          	mov    QWORD PTR [rbp-0x20],rax
  401a95:	48 89 55 e8          	mov    QWORD PTR [rbp-0x18],rdx
  401a99:	c6 45 ff 01          	mov    BYTE PTR [rbp-0x1],0x1
  401a9d:	c7 45 f4 00 00 00 00 	mov    DWORD PTR [rbp-0xc],0x0
  401aa4:	48 8b 45 a8          	mov    rax,QWORD PTR [rbp-0x58]
  401aa8:	48 89 c7             	mov    rdi,rax
  401aab:	e8 a0 f5 ff ff       	call   401050 <strlen@plt>
  401ab0:	89 45 f0             	mov    DWORD PTR [rbp-0x10],eax
  401ab3:	c7 45 f8 00 00 00 00 	mov    DWORD PTR [rbp-0x8],0x0
  401aba:	eb 46                	jmp    401b02 <validFilename+0xe5>
  401abc:	8b 45 f8             	mov    eax,DWORD PTR [rbp-0x8]
  401abf:	48 63 d0             	movsxd rdx,eax
  401ac2:	48 8b 45 a8          	mov    rax,QWORD PTR [rbp-0x58]
  401ac6:	48 01 d0             	add    rax,rdx
  401ac9:	0f b6 00             	movzx  eax,BYTE PTR [rax]
  401acc:	0f be d0             	movsx  edx,al
  401acf:	48 8d 45 b0          	lea    rax,[rbp-0x50]
  401ad3:	89 d6                	mov    esi,edx
  401ad5:	48 89 c7             	mov    rdi,rax
  401ad8:	e8 83 f5 ff ff       	call   401060 <strchr@plt>
  401add:	48 85 c0             	test   rax,rax
  401ae0:	75 04                	jne    401ae6 <validFilename+0xc9>
  401ae2:	c6 45 ff 00          	mov    BYTE PTR [rbp-0x1],0x0
  401ae6:	8b 45 f8             	mov    eax,DWORD PTR [rbp-0x8]
  401ae9:	48 63 d0             	movsxd rdx,eax
  401aec:	48 8b 45 a8          	mov    rax,QWORD PTR [rbp-0x58]
  401af0:	48 01 d0             	add    rax,rdx
  401af3:	0f b6 00             	movzx  eax,BYTE PTR [rax]
  401af6:	3c 2e                	cmp    al,0x2e
  401af8:	75 04                	jne    401afe <validFilename+0xe1>
  401afa:	83 45 f4 01          	add    DWORD PTR [rbp-0xc],0x1
  401afe:	83 45 f8 01          	add    DWORD PTR [rbp-0x8],0x1
  401b02:	8b 45 f8             	mov    eax,DWORD PTR [rbp-0x8]
  401b05:	3b 45 f0             	cmp    eax,DWORD PTR [rbp-0x10]
  401b08:	7d 06                	jge    401b10 <validFilename+0xf3>
  401b0a:	80 7d ff 00          	cmp    BYTE PTR [rbp-0x1],0x0
  401b0e:	75 ac                	jne    401abc <validFilename+0x9f>
  401b10:	80 7d ff 00          	cmp    BYTE PTR [rbp-0x1],0x0
  401b14:	74 0d                	je     401b23 <validFilename+0x106>
  401b16:	83 7d f4 01          	cmp    DWORD PTR [rbp-0xc],0x1
  401b1a:	75 07                	jne    401b23 <validFilename+0x106>
  401b1c:	b8 01 00 00 00       	mov    eax,0x1
  401b21:	eb 05                	jmp    401b28 <validFilename+0x10b>
  401b23:	b8 00 00 00 00       	mov    eax,0x0
  401b28:	83 e0 01             	and    eax,0x1
  401b2b:	c9                   	leave
  401b2c:	c3                   	ret

0000000000401b2d <main>:
  401b2d:	55                   	push   rbp
  401b2e:	48 89 e5             	mov    rbp,rsp
  401b31:	48 83 ec 40          	sub    rsp,0x40
  401b35:	89 7d cc             	mov    DWORD PTR [rbp-0x34],edi
  401b38:	48 89 75 c0          	mov    QWORD PTR [rbp-0x40],rsi
  401b3c:	c7 45 f7 8e 1f 45 76 	mov    DWORD PTR [rbp-0x9],0x76451f8e
  401b43:	c6 45 fb 1b          	mov    BYTE PTR [rbp-0x5],0x1b
  401b47:	48 b8 ae a4 f3 b5 bd 	movabs rax,0x480b9abdb5f3a4ae
  401b4e:	9a 0b 48 
  401b51:	48 ba 26 d1 bb 8d 47 	movabs rdx,0xd26a42478dbbd126
  401b58:	42 6a d2 
  401b5b:	48 89 45 d0          	mov    QWORD PTR [rbp-0x30],rax
  401b5f:	48 89 55 d8          	mov    QWORD PTR [rbp-0x28],rdx
  401b63:	48 b8 d9 12 41 ff 12 	movabs rax,0x15ed8712ff4112d9
  401b6a:	87 ed 15 
  401b6d:	48 89 45 e0          	mov    QWORD PTR [rbp-0x20],rax
  401b71:	c7 45 e8 73 82 3f bc 	mov    DWORD PTR [rbp-0x18],0xbc3f8273
  401b78:	66 c7 45 ec 62 61    	mov    WORD PTR [rbp-0x14],0x6162
  401b7e:	c6 45 ee 63          	mov    BYTE PTR [rbp-0x12],0x63
  401b82:	48 8d 45 f7          	lea    rax,[rbp-0x9]
  401b86:	be ac 07 00 00       	mov    esi,0x7ac
  401b8b:	48 89 c7             	mov    rdi,rax
  401b8e:	e8 5e fd ff ff       	call   4018f1 <deobfuscate>
  401b93:	48 8d 45 d0          	lea    rax,[rbp-0x30]
  401b97:	be 9b 07 00 00       	mov    esi,0x79b
  401b9c:	48 89 c7             	mov    rdi,rax
  401b9f:	e8 4d fd ff ff       	call   4018f1 <deobfuscate>
  401ba4:	83 7d cc 02          	cmp    DWORD PTR [rbp-0x34],0x2
  401ba8:	74 1e                	je     401bc8 <main+0x9b>
  401baa:	bf 18 30 40 00       	mov    edi,0x403018
  401baf:	e8 8c f4 ff ff       	call   401040 <puts@plt>
  401bb4:	bf 44 30 40 00       	mov    edi,0x403044
  401bb9:	e8 82 f4 ff ff       	call   401040 <puts@plt>
  401bbe:	b8 00 00 00 00       	mov    eax,0x0
  401bc3:	e9 84 01 00 00       	jmp    401d4c <main+0x21f>
  401bc8:	48 8b 45 c0          	mov    rax,QWORD PTR [rbp-0x40]
  401bcc:	48 83 c0 08          	add    rax,0x8
  401bd0:	48 8b 00             	mov    rax,QWORD PTR [rax]
  401bd3:	48 89 c7             	mov    rdi,rax
  401bd6:	e8 42 fe ff ff       	call   401a1d <validFilename>
  401bdb:	83 f0 01             	xor    eax,0x1
  401bde:	84 c0                	test   al,al
  401be0:	74 1e                	je     401c00 <main+0xd3>
  401be2:	bf 68 30 40 00       	mov    edi,0x403068
  401be7:	e8 54 f4 ff ff       	call   401040 <puts@plt>
  401bec:	bf 44 30 40 00       	mov    edi,0x403044
  401bf1:	e8 4a f4 ff ff       	call   401040 <puts@plt>
  401bf6:	b8 00 00 00 00       	mov    eax,0x0
  401bfb:	e9 4c 01 00 00       	jmp    401d4c <main+0x21f>
  401c00:	48 8b 45 c0          	mov    rax,QWORD PTR [rbp-0x40]
  401c04:	48 83 c0 08          	add    rax,0x8
  401c08:	48 8b 00             	mov    rax,QWORD PTR [rax]
  401c0b:	48 89 c7             	mov    rdi,rax
  401c0e:	e8 3d f4 ff ff       	call   401050 <strlen@plt>
  401c13:	48 83 f8 31          	cmp    rax,0x31
  401c17:	76 1e                	jbe    401c37 <main+0x10a>
  401c19:	bf b9 30 40 00       	mov    edi,0x4030b9
  401c1e:	e8 1d f4 ff ff       	call   401040 <puts@plt>
  401c23:	bf 44 30 40 00       	mov    edi,0x403044
  401c28:	e8 13 f4 ff ff       	call   401040 <puts@plt>
  401c2d:	b8 00 00 00 00       	mov    eax,0x0
  401c32:	e9 15 01 00 00       	jmp    401d4c <main+0x21f>
  401c37:	48 8b 45 c0          	mov    rax,QWORD PTR [rbp-0x40]
  401c3b:	48 83 c0 08          	add    rax,0x8
  401c3f:	48 8b 00             	mov    rax,QWORD PTR [rax]
  401c42:	48 8d 55 f7          	lea    rdx,[rbp-0x9]
  401c46:	48 89 d6             	mov    rsi,rdx
  401c49:	48 89 c7             	mov    rdi,rax
  401c4c:	e8 78 fd ff ff       	call   4019c9 <strend>
  401c51:	83 f0 01             	xor    eax,0x1
  401c54:	84 c0                	test   al,al
  401c56:	74 31                	je     401c89 <main+0x15c>
  401c58:	48 8b 45 c0          	mov    rax,QWORD PTR [rbp-0x40]
  401c5c:	48 83 c0 08          	add    rax,0x8
  401c60:	48 8b 00             	mov    rax,QWORD PTR [rax]
  401c63:	48 89 c6             	mov    rsi,rax
  401c66:	bf d8 30 40 00       	mov    edi,0x4030d8
  401c6b:	b8 00 00 00 00       	mov    eax,0x0
  401c70:	e8 fb f3 ff ff       	call   401070 <printf@plt>
  401c75:	bf 44 30 40 00       	mov    edi,0x403044
  401c7a:	e8 c1 f3 ff ff       	call   401040 <puts@plt>
  401c7f:	b8 00 00 00 00       	mov    eax,0x0
  401c84:	e9 c3 00 00 00       	jmp    401d4c <main+0x21f>
  401c89:	48 8b 45 c0          	mov    rax,QWORD PTR [rbp-0x40]
  401c8d:	48 83 c0 08          	add    rax,0x8
  401c91:	48 8b 00             	mov    rax,QWORD PTR [rax]
  401c94:	48 89 c6             	mov    rsi,rax
  401c97:	bf fa 30 40 00       	mov    edi,0x4030fa
  401c9c:	b8 00 00 00 00       	mov    eax,0x0
  401ca1:	e8 ca f3 ff ff       	call   401070 <printf@plt>
  401ca6:	48 8b 45 c0          	mov    rax,QWORD PTR [rbp-0x40]
  401caa:	48 83 c0 08          	add    rax,0x8
  401cae:	48 8b 00             	mov    rax,QWORD PTR [rax]
  401cb1:	48 8d 55 d0          	lea    rdx,[rbp-0x30]
  401cb5:	48 89 d6             	mov    rsi,rdx
  401cb8:	48 89 c7             	mov    rdi,rax
  401cbb:	e8 8e 00 00 00       	call   401d4e <submit>
  401cc0:	89 45 fc             	mov    DWORD PTR [rbp-0x4],eax
  401cc3:	83 7d fc 02          	cmp    DWORD PTR [rbp-0x4],0x2
  401cc7:	74 49                	je     401d12 <main+0x1e5>
  401cc9:	83 7d fc 02          	cmp    DWORD PTR [rbp-0x4],0x2
  401ccd:	7f 59                	jg     401d28 <main+0x1fb>
  401ccf:	83 7d fc 00          	cmp    DWORD PTR [rbp-0x4],0x0
  401cd3:	74 08                	je     401cdd <main+0x1b0>
  401cd5:	83 7d fc 01          	cmp    DWORD PTR [rbp-0x4],0x1
  401cd9:	74 0e                	je     401ce9 <main+0x1bc>
  401cdb:	eb 4b                	jmp    401d28 <main+0x1fb>
  401cdd:	bf 0b 31 40 00       	mov    edi,0x40310b
  401ce2:	e8 59 f3 ff ff       	call   401040 <puts@plt>
  401ce7:	eb 5e                	jmp    401d47 <main+0x21a>
  401ce9:	48 8b 45 c0          	mov    rax,QWORD PTR [rbp-0x40]
  401ced:	48 83 c0 08          	add    rax,0x8
  401cf1:	48 8b 00             	mov    rax,QWORD PTR [rax]
  401cf4:	48 89 c6             	mov    rsi,rax
  401cf7:	bf 17 31 40 00       	mov    edi,0x403117
  401cfc:	b8 00 00 00 00       	mov    eax,0x0
  401d01:	e8 6a f3 ff ff       	call   401070 <printf@plt>
  401d06:	bf 33 31 40 00       	mov    edi,0x403133
  401d0b:	e8 30 f3 ff ff       	call   401040 <puts@plt>
  401d10:	eb 35                	jmp    401d47 <main+0x21a>
  401d12:	bf 50 31 40 00       	mov    edi,0x403150
  401d17:	e8 24 f3 ff ff       	call   401040 <puts@plt>
  401d1c:	bf 70 31 40 00       	mov    edi,0x403170
  401d21:	e8 1a f3 ff ff       	call   401040 <puts@plt>
  401d26:	eb 1f                	jmp    401d47 <main+0x21a>
  401d28:	8b 45 fc             	mov    eax,DWORD PTR [rbp-0x4]
  401d2b:	89 c6                	mov    esi,eax
  401d2d:	bf 92 31 40 00       	mov    edi,0x403192
  401d32:	b8 00 00 00 00       	mov    eax,0x0
  401d37:	e8 34 f3 ff ff       	call   401070 <printf@plt>
  401d3c:	bf 44 30 40 00       	mov    edi,0x403044
  401d41:	e8 fa f2 ff ff       	call   401040 <puts@plt>
  401d46:	90                   	nop
  401d47:	b8 00 00 00 00       	mov    eax,0x0
  401d4c:	c9                   	leave
  401d4d:	c3                   	ret

0000000000401d4e <submit>:
  401d4e:	55                   	push   rbp
  401d4f:	48 89 e5             	mov    rbp,rsp
  401d52:	48 81 ec 50 02 00 00 	sub    rsp,0x250
  401d59:	48 89 bd b8 fd ff ff 	mov    QWORD PTR [rbp-0x248],rdi
  401d60:	48 89 b5 b0 fd ff ff 	mov    QWORD PTR [rbp-0x250],rsi
  401d67:	c7 45 e5 f7 f0 74 76 	mov    DWORD PTR [rbp-0x1b],0x7674f0f7
  401d6e:	66 c7 45 e9 31 6a    	mov    WORD PTR [rbp-0x17],0x6a31
  401d74:	c6 45 eb ac          	mov    BYTE PTR [rbp-0x15],0xac
  401d78:	48 b8 dd e5 fc df 6a 	movabs rax,0x22c5916adffce5dd
  401d7f:	91 c5 22 
  401d82:	48 89 45 d9          	mov    QWORD PTR [rbp-0x27],rax
  401d86:	c7 45 e1 2d bc 5c c4 	mov    DWORD PTR [rbp-0x1f],0xc45cbc2d
  401d8d:	48 b8 7e 8c 95 cd f8 	movabs rax,0xe4f8e5f8cd958c7e
  401d94:	e5 f8 e4 
  401d97:	48 89 45 cc          	mov    QWORD PTR [rbp-0x34],rax
  401d9b:	c7 45 d4 38 52 04 46 	mov    DWORD PTR [rbp-0x2c],0x46045238
  401da2:	c6 45 d8 63          	mov    BYTE PTR [rbp-0x28],0x63
  401da6:	66 c7 45 c9 4c 32    	mov    WORD PTR [rbp-0x37],0x324c
  401dac:	c6 45 cb 6a          	mov    BYTE PTR [rbp-0x35],0x6a
  401db0:	48 b8 81 e6 98 fc 6d 	movabs rax,0xe786aa6dfc98e681
  401db7:	aa 86 e7 
  401dba:	48 ba 17 29 e7 75 3e 	movabs rdx,0x2265573e75e72917
  401dc1:	57 65 22 
  401dc4:	48 89 45 b0          	mov    QWORD PTR [rbp-0x50],rax
  401dc8:	48 89 55 b8          	mov    QWORD PTR [rbp-0x48],rdx
  401dcc:	c6 45 c0 f8          	mov    BYTE PTR [rbp-0x40],0xf8
  401dd0:	48 b8 f8 cc 46 67 c4 	movabs rax,0xd913aec46746ccf8
  401dd7:	ae 13 d9 
  401dda:	48 ba 38 8c 85 ef 49 	movabs rdx,0x91671949ef858c38
  401de1:	19 67 91 
  401de4:	48 89 45 90          	mov    QWORD PTR [rbp-0x70],rax
  401de8:	48 89 55 98          	mov    QWORD PTR [rbp-0x68],rdx
  401dec:	c6 45 a0 a1          	mov    BYTE PTR [rbp-0x60],0xa1
  401df0:	48 b8 a0 77 12 66 11 	movabs rax,0xdcd38811661277a0
  401df7:	88 d3 dc 
  401dfa:	48 ba 75 8c ae b2 62 	movabs rdx,0xeebbdf62b2ae8c75
  401e01:	df bb ee 
  401e04:	48 89 85 60 ff ff ff 	mov    QWORD PTR [rbp-0xa0],rax
  401e0b:	48 89 95 68 ff ff ff 	mov    QWORD PTR [rbp-0x98],rdx
  401e12:	48 b8 a0 ce 1c 1a c9 	movabs rax,0x1768b7c91a1ccea0
  401e19:	b7 68 17 
  401e1c:	48 ba 63 05 b0 b5 d4 	movabs rdx,0xedbaa1d4b5b00563
  401e23:	a1 ba ed 
  401e26:	48 89 85 70 ff ff ff 	mov    QWORD PTR [rbp-0x90],rax
  401e2d:	48 89 95 78 ff ff ff 	mov    QWORD PTR [rbp-0x88],rdx
  401e34:	48 b8 62 3a c5 83 d7 	movabs rax,0x58fd1cd783c53a62
  401e3b:	1c fd 58 
  401e3e:	48 89 45 80          	mov    QWORD PTR [rbp-0x80],rax
  401e42:	48 b8 ff 15 a7 4b e1 	movabs rax,0x72fbce14ba715ff
  401e49:	bc 2f 07 
  401e4c:	48 ba 7b e9 bd 91 ad 	movabs rdx,0x5378adad91bde97b
  401e53:	ad 78 53 
  401e56:	48 89 85 30 ff ff ff 	mov    QWORD PTR [rbp-0xd0],rax
  401e5d:	48 89 95 38 ff ff ff 	mov    QWORD PTR [rbp-0xc8],rdx
  401e64:	48 b8 43 44 58 58 83 	movabs rax,0x77b43d8358584443
  401e6b:	3d b4 77 
  401e6e:	48 ba c5 99 d4 26 7b 	movabs rdx,0x52d3ef7b26d499c5
  401e75:	ef d3 52 
  401e78:	48 89 85 40 ff ff ff 	mov    QWORD PTR [rbp-0xc0],rax
  401e7f:	48 89 95 48 ff ff ff 	mov    QWORD PTR [rbp-0xb8],rdx
  401e86:	66 c7 85 50 ff ff ff 	mov    WORD PTR [rbp-0xb0],0x196e
  401e8d:	6e 19 
  401e8f:	48 b8 4c d9 36 03 cc 	movabs rax,0xc45d40cc0336d94c
  401e96:	40 5d c4 
  401e99:	48 ba fe 99 02 0a fd 	movabs rdx,0xdd8f3dfd0a0299fe
  401ea0:	3d 8f dd 
  401ea3:	48 89 85 00 ff ff ff 	mov    QWORD PTR [rbp-0x100],rax
  401eaa:	48 89 95 08 ff ff ff 	mov    QWORD PTR [rbp-0xf8],rdx
  401eb1:	48 b8 32 fa 8d bd 81 	movabs rax,0x5418ae81bd8dfa32
  401eb8:	ae 18 54 
  401ebb:	48 ba 28 06 1a 9a cb 	movabs rdx,0x94bb18cb9a1a0628
  401ec2:	18 bb 94 
  401ec5:	48 89 85 10 ff ff ff 	mov    QWORD PTR [rbp-0xf0],rax
  401ecc:	48 89 95 18 ff ff ff 	mov    QWORD PTR [rbp-0xe8],rdx
  401ed3:	66 c7 85 20 ff ff ff 	mov    WORD PTR [rbp-0xe0],0xebae
  401eda:	ae eb 
  401edc:	c7 45 fc 00 00 00 00 	mov    DWORD PTR [rbp-0x4],0x0
  401ee3:	48 8d 45 e5          	lea    rax,[rbp-0x1b]
  401ee7:	be 9b 01 00 00       	mov    esi,0x19b
  401eec:	48 89 c7             	mov    rdi,rax
  401eef:	e8 fd f9 ff ff       	call   4018f1 <deobfuscate>
  401ef4:	48 8d 45 d9          	lea    rax,[rbp-0x27]
  401ef8:	be d4 05 00 00       	mov    esi,0x5d4
  401efd:	48 89 c7             	mov    rdi,rax
  401f00:	e8 ec f9 ff ff       	call   4018f1 <deobfuscate>
  401f05:	48 8d 45 cc          	lea    rax,[rbp-0x34]
  401f09:	be b0 04 00 00       	mov    esi,0x4b0
  401f0e:	48 89 c7             	mov    rdi,rax
  401f11:	e8 db f9 ff ff       	call   4018f1 <deobfuscate>
  401f16:	48 8d 45 c9          	lea    rax,[rbp-0x37]
  401f1a:	be 59 02 00 00       	mov    esi,0x259
  401f1f:	48 89 c7             	mov    rdi,rax
  401f22:	e8 ca f9 ff ff       	call   4018f1 <deobfuscate>
  401f27:	48 8d 45 b0          	lea    rax,[rbp-0x50]
  401f2b:	be 0a 07 00 00       	mov    esi,0x70a
  401f30:	48 89 c7             	mov    rdi,rax
  401f33:	e8 b9 f9 ff ff       	call   4018f1 <deobfuscate>
  401f38:	48 8d 45 90          	lea    rax,[rbp-0x70]
  401f3c:	be a0 09 01 00       	mov    esi,0x109a0
  401f41:	48 89 c7             	mov    rdi,rax
  401f44:	e8 a8 f9 ff ff       	call   4018f1 <deobfuscate>
  401f49:	48 8d 85 60 ff ff ff 	lea    rax,[rbp-0xa0]
  401f50:	be 66 19 00 00       	mov    esi,0x1966
  401f55:	48 89 c7             	mov    rdi,rax
  401f58:	e8 94 f9 ff ff       	call   4018f1 <deobfuscate>
  401f5d:	48 8d 85 30 ff ff ff 	lea    rax,[rbp-0xd0]
  401f64:	be 96 1f 00 00       	mov    esi,0x1f96
  401f69:	48 89 c7             	mov    rdi,rax
  401f6c:	e8 80 f9 ff ff       	call   4018f1 <deobfuscate>
  401f71:	48 8d 85 00 ff ff ff 	lea    rax,[rbp-0x100]
  401f78:	be a4 0f 00 00       	mov    esi,0xfa4
  401f7d:	48 89 c7             	mov    rdi,rax
  401f80:	e8 6c f9 ff ff       	call   4018f1 <deobfuscate>
  401f85:	bf 00 00 00 00       	mov    edi,0x0
  401f8a:	e8 41 f1 ff ff       	call   4010d0 <time@plt>
  401f8f:	48 89 85 c8 fd ff ff 	mov    QWORD PTR [rbp-0x238],rax
  401f96:	48 8d 85 c8 fd ff ff 	lea    rax,[rbp-0x238]
  401f9d:	48 89 c7             	mov    rdi,rax
  401fa0:	e8 8b f0 ff ff       	call   401030 <localtime@plt>
  401fa5:	48 89 45 f0          	mov    QWORD PTR [rbp-0x10],rax
  401fa9:	48 8b 45 f0          	mov    rax,QWORD PTR [rbp-0x10]
  401fad:	8b 78 0c             	mov    edi,DWORD PTR [rax+0xc]
  401fb0:	48 8b 45 f0          	mov    rax,QWORD PTR [rbp-0x10]
  401fb4:	8b 40 10             	mov    eax,DWORD PTR [rax+0x10]
  401fb7:	8d 48 01             	lea    ecx,[rax+0x1]
  401fba:	48 8b 45 f0          	mov    rax,QWORD PTR [rbp-0x10]
  401fbe:	8b 40 14             	mov    eax,DWORD PTR [rax+0x14]
  401fc1:	8d 90 6c 07 00 00    	lea    edx,[rax+0x76c]
  401fc7:	48 8d 75 cc          	lea    rsi,[rbp-0x34]
  401fcb:	48 8d 85 60 fe ff ff 	lea    rax,[rbp-0x1a0]
  401fd2:	41 89 f8             	mov    r8d,edi
  401fd5:	48 89 c7             	mov    rdi,rax
  401fd8:	b8 00 00 00 00       	mov    eax,0x0
  401fdd:	e8 1e f1 ff ff       	call   401100 <sprintf@plt>
  401fe2:	48 8b 8d b8 fd ff ff 	mov    rcx,QWORD PTR [rbp-0x248]
  401fe9:	48 8d 55 c9          	lea    rdx,[rbp-0x37]
  401fed:	48 8d 85 60 ff ff ff 	lea    rax,[rbp-0xa0]
  401ff4:	49 89 c8             	mov    r8,rcx
  401ff7:	48 89 d1             	mov    rcx,rdx
  401ffa:	48 89 c2             	mov    rdx,rax
  401ffd:	be 00 00 00 00       	mov    esi,0x0
  402002:	bf 00 00 00 00       	mov    edi,0x0
  402007:	b8 00 00 00 00       	mov    eax,0x0
  40200c:	e8 82 f4 ff ff       	call   401493 <run>
  402011:	89 45 ec             	mov    DWORD PTR [rbp-0x14],eax
  402014:	83 7d ec 02          	cmp    DWORD PTR [rbp-0x14],0x2
  402018:	74 0a                	je     402024 <submit+0x2d6>
  40201a:	b8 01 00 00 00       	mov    eax,0x1
  40201f:	e9 bd 01 00 00       	jmp    4021e1 <submit+0x493>
  402024:	48 8b 8d b8 fd ff ff 	mov    rcx,QWORD PTR [rbp-0x248]
  40202b:	48 8d 95 30 ff ff ff 	lea    rdx,[rbp-0xd0]
  402032:	48 8d 85 c0 fe ff ff 	lea    rax,[rbp-0x140]
  402039:	be 32 00 00 00       	mov    esi,0x32
  40203e:	48 89 c7             	mov    rdi,rax
  402041:	b8 00 00 00 00       	mov    eax,0x0
  402046:	e8 48 f4 ff ff       	call   401493 <run>
  40204b:	89 45 ec             	mov    DWORD PTR [rbp-0x14],eax
  40204e:	83 7d ec 00          	cmp    DWORD PTR [rbp-0x14],0x0
  402052:	79 0a                	jns    40205e <submit+0x310>
  402054:	b8 03 00 00 00       	mov    eax,0x3
  402059:	e9 83 01 00 00       	jmp    4021e1 <submit+0x493>
  40205e:	48 8b 8d b8 fd ff ff 	mov    rcx,QWORD PTR [rbp-0x248]
  402065:	48 8d 95 00 ff ff ff 	lea    rdx,[rbp-0x100]
  40206c:	48 8d 85 80 fe ff ff 	lea    rax,[rbp-0x180]
  402073:	be 32 00 00 00       	mov    esi,0x32
  402078:	48 89 c7             	mov    rdi,rax
  40207b:	b8 00 00 00 00       	mov    eax,0x0
  402080:	e8 0e f4 ff ff       	call   401493 <run>
  402085:	89 45 ec             	mov    DWORD PTR [rbp-0x14],eax
  402088:	83 7d ec 00          	cmp    DWORD PTR [rbp-0x14],0x0
  40208c:	79 0a                	jns    402098 <submit+0x34a>
  40208e:	b8 04 00 00 00       	mov    eax,0x4
  402093:	e9 49 01 00 00       	jmp    4021e1 <submit+0x493>
  402098:	48 8d 55 e5          	lea    rdx,[rbp-0x1b]
  40209c:	48 8d 85 40 fe ff ff 	lea    rax,[rbp-0x1c0]
  4020a3:	be 14 00 00 00       	mov    esi,0x14
  4020a8:	48 89 c7             	mov    rdi,rax
  4020ab:	b8 00 00 00 00       	mov    eax,0x0
  4020b0:	e8 de f3 ff ff       	call   401493 <run>
  4020b5:	89 45 ec             	mov    DWORD PTR [rbp-0x14],eax
  4020b8:	83 7d ec 02          	cmp    DWORD PTR [rbp-0x14],0x2
  4020bc:	74 0a                	je     4020c8 <submit+0x37a>
  4020be:	b8 05 00 00 00       	mov    eax,0x5
  4020c3:	e9 19 01 00 00       	jmp    4021e1 <submit+0x493>
  4020c8:	4c 8d 85 80 fe ff ff 	lea    r8,[rbp-0x180]
  4020cf:	48 8d bd 60 fe ff ff 	lea    rdi,[rbp-0x1a0]
  4020d6:	48 8d 8d c0 fe ff ff 	lea    rcx,[rbp-0x140]
  4020dd:	48 8d 95 40 fe ff ff 	lea    rdx,[rbp-0x1c0]
  4020e4:	48 8d 75 d9          	lea    rsi,[rbp-0x27]
  4020e8:	48 8d 85 d0 fd ff ff 	lea    rax,[rbp-0x230]
  4020ef:	4d 89 c1             	mov    r9,r8
  4020f2:	49 89 f8             	mov    r8,rdi
  4020f5:	48 89 c7             	mov    rdi,rax
  4020f8:	b8 00 00 00 00       	mov    eax,0x0
  4020fd:	e8 fe ef ff ff       	call   401100 <sprintf@plt>
  402102:	48 8d 8d d0 fd ff ff 	lea    rcx,[rbp-0x230]
  402109:	48 8b 95 b0 fd ff ff 	mov    rdx,QWORD PTR [rbp-0x250]
  402110:	48 8d 85 60 ff ff ff 	lea    rax,[rbp-0xa0]
  402117:	49 89 c8             	mov    r8,rcx
  40211a:	48 89 d1             	mov    rcx,rdx
  40211d:	48 89 c2             	mov    rdx,rax
  402120:	be 00 00 00 00       	mov    esi,0x0
  402125:	bf 00 00 00 00       	mov    edi,0x0
  40212a:	b8 00 00 00 00       	mov    eax,0x0
  40212f:	e8 5f f3 ff ff       	call   401493 <run>
  402134:	89 45 ec             	mov    DWORD PTR [rbp-0x14],eax
  402137:	83 7d ec 02          	cmp    DWORD PTR [rbp-0x14],0x2
  40213b:	75 0a                	jne    402147 <submit+0x3f9>
  40213d:	b8 02 00 00 00       	mov    eax,0x2
  402142:	e9 9a 00 00 00       	jmp    4021e1 <submit+0x493>
  402147:	48 8b bd b0 fd ff ff 	mov    rdi,QWORD PTR [rbp-0x250]
  40214e:	48 8b b5 b8 fd ff ff 	mov    rsi,QWORD PTR [rbp-0x248]
  402155:	48 8d 55 c9          	lea    rdx,[rbp-0x37]
  402159:	48 8d 45 b0          	lea    rax,[rbp-0x50]
  40215d:	48 83 ec 08          	sub    rsp,0x8
  402161:	48 8d 8d d0 fd ff ff 	lea    rcx,[rbp-0x230]
  402168:	51                   	push   rcx
  402169:	49 89 f9             	mov    r9,rdi
  40216c:	49 89 f0             	mov    r8,rsi
  40216f:	48 89 d1             	mov    rcx,rdx
  402172:	48 89 c2             	mov    rdx,rax
  402175:	be 00 00 00 00       	mov    esi,0x0
  40217a:	bf 00 00 00 00       	mov    edi,0x0
  40217f:	b8 00 00 00 00       	mov    eax,0x0
  402184:	e8 0a f3 ff ff       	call   401493 <run>
  402189:	48 83 c4 10          	add    rsp,0x10
  40218d:	89 45 ec             	mov    DWORD PTR [rbp-0x14],eax
  402190:	83 7d ec 00          	cmp    DWORD PTR [rbp-0x14],0x0
  402194:	79 07                	jns    40219d <submit+0x44f>
  402196:	b8 06 00 00 00       	mov    eax,0x6
  40219b:	eb 44                	jmp    4021e1 <submit+0x493>
  40219d:	48 8d 8d d0 fd ff ff 	lea    rcx,[rbp-0x230]
  4021a4:	48 8b 95 b0 fd ff ff 	mov    rdx,QWORD PTR [rbp-0x250]
  4021ab:	48 8d 45 90          	lea    rax,[rbp-0x70]
  4021af:	49 89 c8             	mov    r8,rcx
  4021b2:	48 89 d1             	mov    rcx,rdx
  4021b5:	48 89 c2             	mov    rdx,rax
  4021b8:	be 00 00 00 00       	mov    esi,0x0
  4021bd:	bf 00 00 00 00       	mov    edi,0x0
  4021c2:	b8 00 00 00 00       	mov    eax,0x0
  4021c7:	e8 c7 f2 ff ff       	call   401493 <run>
  4021cc:	89 45 ec             	mov    DWORD PTR [rbp-0x14],eax
  4021cf:	83 7d ec 00          	cmp    DWORD PTR [rbp-0x14],0x0
  4021d3:	79 07                	jns    4021dc <submit+0x48e>
  4021d5:	b8 07 00 00 00       	mov    eax,0x7
  4021da:	eb 05                	jmp    4021e1 <submit+0x493>
  4021dc:	b8 00 00 00 00       	mov    eax,0x0
  4021e1:	c9                   	leave
  4021e2:	c3                   	ret

Disassembly of section .fini:

00000000004021e4 <_fini>:
  4021e4:	f3 0f 1e fa          	endbr64
  4021e8:	48 83 ec 08          	sub    rsp,0x8
  4021ec:	48 83 c4 08          	add    rsp,0x8
  4021f0:	c3                   	ret
