
stringer.o:     file format elf64-x86-64

Contents of section .text:
 0000 488d3425 00000000 e8000000 00e80000  H.4%............
 0010 0000488d 34250000 0000e800 000000e8  ..H.4%..........
 0020 00000000 50e80000 00004889 c248c7c0  ....P.....H..H..
 0030 01000000 48c7c701 0000000f 0558c348  ....H........X.H
 0040 8d342500 000000e8 00000000 48c7c000  .4%.........H...
 0050 00000048 c7c70000 0000488d 34250000  ...H......H.4%..
 0060 000048c7 c2ff0300 000f0548 ffc8c680  ..H........H....
 0070 00000000 00c34831 c0803c06 00740548  ......H1..<..t.H
 0080 ffc0ebf5 c34d31e4 4a8d34e5 00000000  .....M1.J.4.....
 0090 488b3648 85f67434 e8000000 00e80000  H.6H..t4........
 00a0 0000e800 00000048 85c074f1 8a042500  .......H..t...%.
 00b0 0000003c 4e74104a 8d34e500 00000048  ...<Nt.J.4.....H
 00c0 8b36e800 00000049 ffc4ebbc c3803c25  .6.....I......<%
 00d0 00000000 00750f8a 04250000 00003c59  .....u...%....<Y
 00e0 74153c4e 7411488d 34250000 0000e800  t.<Nt.H.4%......
 00f0 00000048 31c0c3c3 48c7c03c 00000048  ...H1...H..<...H
 0100 31ff0f05                             1...            
Contents of section .rodata:
 0000 54696d65 20746f20 66697265 20757020  Time to fire up 
 0010 796f7572 20416e79 7468696e 6720456d  your Anything Em
 0020 756c6174 6f722120 416e7377 6572206d  ulator! Answer m
 0030 79207175 65737469 6f6e7320 62792074  y questions by t
 0040 7970696e 67202259 2220666f 72207965  yping "Y" for ye
 0050 732c206f 7220224e 2220666f 72206e6f  s, or "N" for no
 0060 210a003e 2000446f 20796f75 2077616e  !..> .Do you wan
 0070 7420746f 20747279 20736f6d 65207075  t to try some pu
 0080 7a7a6c65 733f0a00 446f2079 6f752077  zzles?..Do you w
 0090 616e7420 746f2062 6c6f7720 73747566  ant to blow stuf
 00a0 66207570 3f0a0044 6f20796f 75207761  f up?..Do you wa
 00b0 6e742074 6f206469 6720686f 6c65733f  nt to dig holes?
 00c0 0a00446f 20796f75 2077616e 7420746f  ..Do you want to
 00d0 20627569 6c642074 68696e67 733f0a00   build things?..
 00e0 49207265 636f6d6d 656e6420 43686573  I recommend Ches
 00f0 73210a00 4772616e 64205468 65667420  s!..Grand Theft 
 0100 4175746f 20697320 6120676f 6f642063  Auto is a good c
 0110 686f6963 65210a00 48617665 20796f75  hoice!..Have you
 0120 20636f6e 73696465 72656420 4d696e65   considered Mine
 0130 73776565 7065723f 0a004920 73756767  sweeper?..I sugg
 0140 65737420 796f7520 74727920 53706163  est you try Spac
 0150 6520456e 67696e65 65727321 0a004920  e Engineers!..I 
 0160 6e656564 20612022 59222066 6f722079  need a "Y" for y
 0170 6573206f 7220224e 2220666f 72206e6f  es or "N" for no
 0180 2e0a0048 61766520 66756e21 0a000000  ...Have fun!....
 0190 00000000 00000000 00000000 00000000  ................
 01a0 00000000 00000000 00000000 00000000  ................
 01b0 00000000 00000000 00000000 00000000  ................
 01c0 00000000 00000000 00000000 00000000  ................
 01d0 00000000 00000000 00000000 0000      ..............  

Disassembly of section .text:

0000000000000000 <_start>:
   0:	48 8d 34 25 00 00 00 	lea    rsi,ds:0x0
   7:	00 
   8:	e8 00 00 00 00       	call   d <_start+0xd>
   d:	e8 00 00 00 00       	call   12 <_start+0x12>
  12:	48 8d 34 25 00 00 00 	lea    rsi,ds:0x0
  19:	00 
  1a:	e8 00 00 00 00       	call   1f <_start+0x1f>
  1f:	e8 00 00 00 00       	call   24 <PrintString>

0000000000000024 <PrintString>:
  24:	50                   	push   rax
  25:	e8 00 00 00 00       	call   2a <PrintString+0x6>
  2a:	48 89 c2             	mov    rdx,rax
  2d:	48 c7 c0 01 00 00 00 	mov    rax,0x1
  34:	48 c7 c7 01 00 00 00 	mov    rdi,0x1
  3b:	0f 05                	syscall
  3d:	58                   	pop    rax
  3e:	c3                   	ret

000000000000003f <ReadString>:
  3f:	48 8d 34 25 00 00 00 	lea    rsi,ds:0x0
  46:	00 
  47:	e8 00 00 00 00       	call   4c <ReadString+0xd>
  4c:	48 c7 c0 00 00 00 00 	mov    rax,0x0
  53:	48 c7 c7 00 00 00 00 	mov    rdi,0x0
  5a:	48 8d 34 25 00 00 00 	lea    rsi,ds:0x0
  61:	00 
  62:	48 c7 c2 ff 03 00 00 	mov    rdx,0x3ff
  69:	0f 05                	syscall
  6b:	48 ff c8             	dec    rax
  6e:	c6 80 00 00 00 00 00 	mov    BYTE PTR [rax+0x0],0x0
  75:	c3                   	ret

0000000000000076 <StringLength>:
  76:	48 31 c0             	xor    rax,rax

0000000000000079 <StringLengthIter>:
  79:	80 3c 06 00          	cmp    BYTE PTR [rsi+rax*1],0x0
  7d:	74 05                	je     84 <StringLengthOut>
  7f:	48 ff c0             	inc    rax
  82:	eb f5                	jmp    79 <StringLengthIter>

0000000000000084 <StringLengthOut>:
  84:	c3                   	ret

0000000000000085 <QuestionBody>:
  85:	4d 31 e4             	xor    r12,r12

0000000000000088 <QuestionBodyIter>:
  88:	4a 8d 34 e5 00 00 00 	lea    rsi,[r12*8+0x0]
  8f:	00 
  90:	48 8b 36             	mov    rsi,QWORD PTR [rsi]
  93:	48 85 f6             	test   rsi,rsi
  96:	74 34                	je     cc <QuestionBodyEnd>
  98:	e8 00 00 00 00       	call   9d <QuestionBodyInputGet>

000000000000009d <QuestionBodyInputGet>:
  9d:	e8 00 00 00 00       	call   a2 <QuestionBodyInputGet+0x5>
  a2:	e8 00 00 00 00       	call   a7 <QuestionBodyInputGet+0xa>
  a7:	48 85 c0             	test   rax,rax
  aa:	74 f1                	je     9d <QuestionBodyInputGet>
  ac:	8a 04 25 00 00 00 00 	mov    al,BYTE PTR ds:0x0
  b3:	3c 4e                	cmp    al,0x4e
  b5:	74 10                	je     c7 <QuestionBodyContinue>

00000000000000b7 <QuestionBodyPrintAnswer>:
  b7:	4a 8d 34 e5 00 00 00 	lea    rsi,[r12*8+0x0]
  be:	00 
  bf:	48 8b 36             	mov    rsi,QWORD PTR [rsi]
  c2:	e8 00 00 00 00       	call   c7 <QuestionBodyContinue>

00000000000000c7 <QuestionBodyContinue>:
  c7:	49 ff c4             	inc    r12
  ca:	eb bc                	jmp    88 <QuestionBodyIter>

00000000000000cc <QuestionBodyEnd>:
  cc:	c3                   	ret

00000000000000cd <CheckAnswer>:
  cd:	80 3c 25 00 00 00 00 	cmp    BYTE PTR ds:0x0,0x0
  d4:	00 
  d5:	75 0f                	jne    e6 <CheckAnswerFail>
  d7:	8a 04 25 00 00 00 00 	mov    al,BYTE PTR ds:0x0
  de:	3c 59                	cmp    al,0x59
  e0:	74 15                	je     f7 <CheckAnswerSuccess>
  e2:	3c 4e                	cmp    al,0x4e
  e4:	74 11                	je     f7 <CheckAnswerSuccess>

00000000000000e6 <CheckAnswerFail>:
  e6:	48 8d 34 25 00 00 00 	lea    rsi,ds:0x0
  ed:	00 
  ee:	e8 00 00 00 00       	call   f3 <CheckAnswerFail+0xd>
  f3:	48 31 c0             	xor    rax,rax
  f6:	c3                   	ret

00000000000000f7 <CheckAnswerSuccess>:
  f7:	c3                   	ret

00000000000000f8 <Exit>:
  f8:	48 c7 c0 3c 00 00 00 	mov    rax,0x3c
  ff:	48 31 ff             	xor    rdi,rdi
 102:	0f 05                	syscall
